
AVRPhrases.elf:     file format elf32-avr

Sections:
Idx Name          Size      VMA       LMA       File off  Algn
  0 .data         0000013e  00800100  00002994  00002a28  2**0
                  CONTENTS, ALLOC, LOAD, DATA
  1 .text         00002994  00000000  00000000  00000094  2**1
                  CONTENTS, ALLOC, LOAD, READONLY, CODE
  2 .bss          0000065a  0080023e  0080023e  00002b66  2**0
                  ALLOC
  3 .comment      00000030  00000000  00000000  00002b66  2**0
                  CONTENTS, READONLY
  4 .note.gnu.avr.deviceinfo 00000040  00000000  00000000  00002b98  2**2
                  CONTENTS, READONLY
  5 .debug_aranges 000001e8  00000000  00000000  00002bd8  2**0
                  CONTENTS, READONLY, DEBUGGING
  6 .debug_info   00002a7a  00000000  00000000  00002dc0  2**0
                  CONTENTS, READONLY, DEBUGGING
  7 .debug_abbrev 000010b2  00000000  00000000  0000583a  2**0
                  CONTENTS, READONLY, DEBUGGING
  8 .debug_line   00002480  00000000  00000000  000068ec  2**0
                  CONTENTS, READONLY, DEBUGGING
  9 .debug_frame  00000638  00000000  00000000  00008d6c  2**2
                  CONTENTS, READONLY, DEBUGGING
 10 .debug_str    000097d3  00000000  00000000  000093a4  2**0
                  CONTENTS, READONLY, DEBUGGING
 11 .debug_loc    00002459  00000000  00000000  00012b77  2**0
                  CONTENTS, READONLY, DEBUGGING
 12 .debug_ranges 000001e0  00000000  00000000  00014fd0  2**0
                  CONTENTS, READONLY, DEBUGGING
 13 .debug_macro  00000a6b  00000000  00000000  000151b0  2**0
                  CONTENTS, READONLY, DEBUGGING

Disassembly of section .text:

00000000 <__vectors>:
       0:	79 c6       	rjmp	.+3314   	; 0xcf4 <__ctors_end>
       2:	00 00       	nop
       4:	93 c6       	rjmp	.+3366   	; 0xd2c <__bad_interrupt>
       6:	00 00       	nop
       8:	91 c6       	rjmp	.+3362   	; 0xd2c <__bad_interrupt>
       a:	00 00       	nop
       c:	8f c6       	rjmp	.+3358   	; 0xd2c <__bad_interrupt>
       e:	00 00       	nop
      10:	8d c6       	rjmp	.+3354   	; 0xd2c <__bad_interrupt>
      12:	00 00       	nop
      14:	8b c6       	rjmp	.+3350   	; 0xd2c <__bad_interrupt>
      16:	00 00       	nop
      18:	89 c6       	rjmp	.+3346   	; 0xd2c <__bad_interrupt>
      1a:	00 00       	nop
      1c:	87 c6       	rjmp	.+3342   	; 0xd2c <__bad_interrupt>
      1e:	00 00       	nop
      20:	85 c6       	rjmp	.+3338   	; 0xd2c <__bad_interrupt>
      22:	00 00       	nop
      24:	83 c6       	rjmp	.+3334   	; 0xd2c <__bad_interrupt>
      26:	00 00       	nop
      28:	81 c6       	rjmp	.+3330   	; 0xd2c <__bad_interrupt>
      2a:	00 00       	nop
      2c:	7f c6       	rjmp	.+3326   	; 0xd2c <__bad_interrupt>
      2e:	00 00       	nop
      30:	7d c6       	rjmp	.+3322   	; 0xd2c <__bad_interrupt>
      32:	00 00       	nop
      34:	7b c6       	rjmp	.+3318   	; 0xd2c <__bad_interrupt>
      36:	00 00       	nop
      38:	79 c6       	rjmp	.+3314   	; 0xd2c <__bad_interrupt>
      3a:	00 00       	nop
      3c:	77 c6       	rjmp	.+3310   	; 0xd2c <__bad_interrupt>
      3e:	00 00       	nop
      40:	97 c6       	rjmp	.+3374   	; 0xd70 <__vector_16>
      42:	00 00       	nop
      44:	73 c6       	rjmp	.+3302   	; 0xd2c <__bad_interrupt>
      46:	00 00       	nop
      48:	e8 c6       	rjmp	.+3536   	; 0xe1a <__vector_18>
      4a:	00 00       	nop
      4c:	6f c6       	rjmp	.+3294   	; 0xd2c <__bad_interrupt>
      4e:	00 00       	nop
      50:	12 c7       	rjmp	.+3620   	; 0xe76 <__vector_20>
      52:	00 00       	nop
      54:	6b c6       	rjmp	.+3286   	; 0xd2c <__bad_interrupt>
      56:	00 00       	nop
      58:	69 c6       	rjmp	.+3282   	; 0xd2c <__bad_interrupt>
      5a:	00 00       	nop
      5c:	67 c6       	rjmp	.+3278   	; 0xd2c <__bad_interrupt>
      5e:	00 00       	nop
      60:	65 c6       	rjmp	.+3274   	; 0xd2c <__bad_interrupt>
      62:	00 00       	nop
      64:	63 c6       	rjmp	.+3270   	; 0xd2c <__bad_interrupt>
	...

00000068 <__trampolines_end>:
      68:	38 84       	ldd	r3, Y+8	; 0x08
      6a:	6b 19       	sub	r22, r11
      6c:	c6 63       	ori	r28, 0x36	; 54
      6e:	18 86       	std	Y+8, r1	; 0x08
      70:	73 98       	cbi	0x0e, 3	; 14
      72:	c6 b1       	in	r28, 0x06	; 6
      74:	1c ca       	rjmp	.-3016   	; 0xfffff4ae <__eeprom_end+0xff7ef4ae>
      76:	31 8c       	ldd	r3, Z+25	; 0x19
      78:	c7 31       	cpi	r28, 0x17	; 23
      7a:	88 c2       	rjmp	.+1296   	; 0x58c <multtable+0x24>
      7c:	30 98       	cbi	0x06, 0	; 6
      7e:	46 31       	cpi	r20, 0x16	; 22
      80:	18 c6       	rjmp	.+3120   	; 0xcb2 <signInputTable1+0x19>
      82:	35 0c       	add	r3, r5
      84:	ca 31       	cpi	r28, 0x1A	; 26
      86:	0c c6       	rjmp	.+3096   	; 0xca0 <signInputTable1+0x7>
      88:	21 10       	cpse	r2, r1
      8a:	24 69       	ori	r18, 0x94	; 148
      8c:	12 c2       	rjmp	.+1060   	; 0x4b2 <__LOCK_REGION_LENGTH__+0xb2>
      8e:	31 14       	cp	r3, r1
      90:	c4 71       	andi	r28, 0x14	; 20
      92:	08 4a       	sbci	r16, 0xA8	; 168
      94:	22 49       	sbci	r18, 0x92	; 146
      96:	ab 6a       	ori	r26, 0xAB	; 171
      98:	a8 ac       	ldd	r10, Y+56	; 0x38
      9a:	49 51       	subi	r20, 0x19	; 25
      9c:	32 d5       	rcall	.+2660   	; 0xb02 <tab47492+0x9>
      9e:	52 88       	ldd	r5, Z+18	; 0x12
      a0:	93 6c       	ori	r25, 0xC3	; 195
      a2:	94 22       	and	r9, r20
      a4:	15 54       	subi	r17, 0x45	; 69
      a6:	d2 25       	eor	r29, r2
      a8:	96 d4       	rcall	.+2348   	; 0x9d6 <sampledConsonantFlags+0x2e>
      aa:	50 a5       	ldd	r21, Z+40	; 0x28
      ac:	46 21       	and	r20, r6
      ae:	08 85       	ldd	r16, Y+8	; 0x08
      b0:	6b 18       	sub	r6, r11
      b2:	c4 63       	ori	r28, 0x34	; 52
      b4:	10 ce       	rjmp	.-992    	; 0xfffffcd6 <__eeprom_end+0xff7efcd6>
      b6:	6b 18       	sub	r6, r11
      b8:	8c 71       	andi	r24, 0x1C	; 28
      ba:	19 8c       	ldd	r1, Y+25	; 0x19
      bc:	63 35       	cpi	r22, 0x53	; 83
      be:	0c c6       	rjmp	.+3096   	; 0xcd8 <signInputTable1+0x3f>
      c0:	33 99       	sbic	0x06, 3	; 6
      c2:	cc 6c       	ori	r28, 0xCC	; 204
      c4:	b5 4e       	sbci	r27, 0xE5	; 229
      c6:	a2 99       	sbic	0x14, 2	; 20
      c8:	46 21       	and	r20, r6
      ca:	28 82       	st	Y, r2
      cc:	95 2e       	mov	r9, r21
      ce:	e3 30       	cpi	r30, 0x03	; 3
      d0:	9c c5       	rjmp	.+2872   	; 0xc0a <flags+0x13>
      d2:	30 9c       	mul	r3, r0
      d4:	a2 b1       	in	r26, 0x02	; 2
      d6:	9c 67       	ori	r25, 0x7C	; 124
      d8:	31 88       	ldd	r3, Z+17	; 0x11
      da:	66 59       	subi	r22, 0x96	; 150
      dc:	2c 53       	subi	r18, 0x3C	; 60
      de:	18 84       	ldd	r1, Y+8	; 0x08
      e0:	67 50       	subi	r22, 0x07	; 7
      e2:	ca e3       	ldi	r28, 0x3A	; 58
      e4:	0a ac       	ldd	r0, Y+58	; 0x3a
      e6:	ab 30       	cpi	r26, 0x0B	; 11
      e8:	ac 62       	ori	r26, 0x2C	; 44
      ea:	30 8c       	ldd	r3, Z+24	; 0x18
      ec:	63 10       	cpse	r6, r3
      ee:	94 62       	ori	r25, 0x24	; 36
      f0:	b1 8c       	ldd	r11, Z+25	; 0x19
      f2:	82 28       	or	r8, r2
      f4:	96 33       	cpi	r25, 0x36	; 54
      f6:	98 d6       	rcall	.+3376   	; 0xe28 <__vector_18+0xe>
      f8:	b5 4c       	sbci	r27, 0xC5	; 197
      fa:	62 29       	or	r22, r2
      fc:	a5 4a       	sbci	r26, 0xA5	; 165
      fe:	b5 9c       	mul	r11, r5
     100:	c6 31       	cpi	r28, 0x16	; 22
     102:	14 d6       	rcall	.+3112   	; 0xd2c <__bad_interrupt>
     104:	38 9c       	mul	r3, r8
     106:	4b b4       	in	r4, 0x2b	; 43
     108:	86 65       	ori	r24, 0x56	; 86
     10a:	18 ae       	std	Y+56, r1	; 0x38
     10c:	67 1c       	adc	r6, r7
     10e:	a6 63       	ori	r26, 0x36	; 54
     110:	19 96       	adiw	r26, 0x09	; 9
     112:	23 19       	sub	r18, r3
     114:	84 13       	cpse	r24, r20
     116:	08 a6       	std	Y+40, r0	; 0x28
     118:	52 ac       	ldd	r5, Z+58	; 0x3a
     11a:	ca 22       	and	r12, r26
     11c:	89 6e       	ori	r24, 0xE9	; 233
     11e:	ab 19       	sub	r26, r11
     120:	8c 62       	ori	r24, 0x2C	; 44
     122:	34 c4       	rjmp	.+2152   	; 0x98c <freq3data+0x34>
     124:	62 19       	sub	r22, r2
     126:	86 63       	ori	r24, 0x36	; 54
     128:	18 c4       	rjmp	.+2096   	; 0x95a <freq3data+0x2>
     12a:	23 58       	subi	r18, 0x83	; 131
     12c:	d6 a3       	std	Z+38, r29	; 0x26
     12e:	50 42       	sbci	r21, 0x20	; 32
     130:	54 4a       	sbci	r21, 0xA4	; 164
     132:	ad 4a       	sbci	r26, 0xAD	; 173
     134:	25 11       	cpse	r18, r5
     136:	6b 64       	ori	r22, 0x4B	; 75
     138:	89 4a       	sbci	r24, 0xA9	; 169
     13a:	63 39       	cpi	r22, 0x93	; 147
     13c:	8a 23       	and	r24, r26
     13e:	31 2a       	or	r3, r17
     140:	ea a2       	std	Y+34, r14	; 0x22
     142:	a9 44       	sbci	r26, 0x49	; 73
     144:	c5 12       	cpse	r12, r21
     146:	cd 42       	sbci	r28, 0x2D	; 45
     148:	34 8c       	ldd	r3, Z+28	; 0x1c
     14a:	62 18       	sub	r6, r2
     14c:	8c 63       	ori	r24, 0x3C	; 60
     14e:	11 48       	sbci	r17, 0x81	; 129
     150:	66 31       	cpi	r22, 0x16	; 22
     152:	9d 44       	sbci	r25, 0x4D	; 77
     154:	33 1d       	adc	r19, r3
     156:	46 31       	cpi	r20, 0x16	; 22
     158:	9c c6       	rjmp	.+3384   	; 0xe92 <__vector_20+0x1c>
     15a:	b1 0c       	add	r11, r1
     15c:	cd 32       	cpi	r28, 0x2D	; 45
     15e:	88 c4       	rjmp	.+2320   	; 0xa70 <outBlendLength+0x28>
     160:	73 18       	sub	r7, r3
     162:	86 73       	andi	r24, 0x36	; 54
     164:	08 d6       	rcall	.+3088   	; 0xd76 <__vector_16+0x6>
     166:	63 58       	subi	r22, 0x83	; 131
     168:	07 81       	ldd	r16, Z+7	; 0x07
     16a:	e0 f0       	brcs	.+56     	; 0x1a4 <__trampolines_end+0x13c>
     16c:	3c 07       	cpc	r19, r28
     16e:	87 90       	elpm	r8, Z+
     170:	3c 7c       	andi	r19, 0xCC	; 204
     172:	0f c7       	rjmp	.+3614   	; 0xf92 <circularBuffer_readByte+0x14>
     174:	c0 c0       	rjmp	.+384    	; 0x2f6 <__trampolines_end+0x28e>
     176:	f0 7c       	andi	r31, 0xC0	; 192
     178:	1e 07       	cpc	r17, r30
     17a:	80 80       	ld	r8, Z
     17c:	00 1c       	adc	r0, r0
     17e:	78 70       	andi	r23, 0x08	; 8
     180:	f1 c7       	rjmp	.+4066   	; 0x1164 <RenderSample+0x5e>
     182:	1f c0       	rjmp	.+62     	; 0x1c2 <__trampolines_end+0x15a>
     184:	0c fe       	.word	0xfe0c	; ????
     186:	1c 1f       	adc	r17, r28
     188:	1f 0e       	add	r1, r31
     18a:	0a 7a       	andi	r16, 0xAA	; 170
     18c:	c0 71       	andi	r28, 0x10	; 16
     18e:	f2 83       	std	Z+2, r31	; 0x02
     190:	8f 03       	fmulsu	r16, r23
     192:	0f 0f       	add	r16, r31
     194:	0c 00       	.word	0x000c	; ????
     196:	79 f8       	.word	0xf879	; ????
     198:	61 e0       	ldi	r22, 0x01	; 1
     19a:	43 0f       	add	r20, r19
     19c:	83 e7       	ldi	r24, 0x73	; 115
     19e:	18 f9       	.word	0xf918	; ????
     1a0:	c1 13       	cpse	r28, r17
     1a2:	da e9       	ldi	r29, 0x9A	; 154
     1a4:	63 8f       	std	Z+27, r22	; 0x1b
     1a6:	0f 83       	std	Y+7, r16	; 0x07
     1a8:	83 87       	std	Z+11, r24	; 0x0b
     1aa:	c3 1f       	adc	r28, r19
     1ac:	3c 70       	andi	r19, 0x0C	; 12
     1ae:	f0 e1       	ldi	r31, 0x10	; 16
     1b0:	e1 e3       	ldi	r30, 0x31	; 49
     1b2:	87 b8       	out	0x07, r8	; 7
     1b4:	71 0e       	add	r7, r17
     1b6:	20 e3       	ldi	r18, 0x30	; 48
     1b8:	8d 48       	sbci	r24, 0x8D	; 141
     1ba:	78 1c       	adc	r7, r8
     1bc:	93 87       	std	Z+11, r25	; 0x0b
     1be:	30 e1       	ldi	r19, 0x10	; 16
     1c0:	c1 c1       	rjmp	.+898    	; 0x544 <__LOCK_REGION_LENGTH__+0x144>
     1c2:	e4 78       	andi	r30, 0x84	; 132
     1c4:	21 83       	std	Z+1, r18	; 0x01
     1c6:	83 c3       	rjmp	.+1798   	; 0x8ce <ampl2data+0x16>
     1c8:	87 06       	cpc	r8, r23
     1ca:	39 e5       	ldi	r19, 0x59	; 89
     1cc:	c3 87       	std	Z+11, r28	; 0x0b
     1ce:	07 0e       	add	r0, r23
     1d0:	1c 1c       	adc	r1, r12
     1d2:	70 f4       	brcc	.+28     	; 0x1f0 <__trampolines_end+0x188>
     1d4:	71 9c       	mul	r7, r1
     1d6:	60 36       	cpi	r22, 0x60	; 96
     1d8:	32 c3       	rjmp	.+1636   	; 0x83e <sinus+0xd6>
     1da:	1e 3c       	cpi	r17, 0xCE	; 206
     1dc:	f3 8f       	std	Z+27, r31	; 0x1b
     1de:	0e 3c       	cpi	r16, 0xCE	; 206
     1e0:	70 e3       	ldi	r23, 0x30	; 48
     1e2:	c7 8f       	std	Z+31, r28	; 0x1f
     1e4:	0f 0f       	add	r16, r31
     1e6:	0e 3c       	cpi	r16, 0xCE	; 206
     1e8:	78 f0       	brcs	.+30     	; 0x208 <__trampolines_end+0x1a0>
     1ea:	e3 87       	std	Z+11, r30	; 0x0b
     1ec:	06 f0       	brts	.+0      	; 0x1ee <__trampolines_end+0x186>
     1ee:	e3 07       	cpc	r30, r19
     1f0:	c1 99       	sbic	0x18, 1	; 24
     1f2:	87 0f       	add	r24, r23
     1f4:	18 78       	andi	r17, 0x88	; 136
     1f6:	70 70       	andi	r23, 0x00	; 0
     1f8:	fc f3       	brlt	.-2      	; 0x1f8 <__trampolines_end+0x190>
     1fa:	10 b1       	in	r17, 0x00	; 0
     1fc:	8c 8c       	ldd	r8, Y+28	; 0x1c
     1fe:	31 7c       	andi	r19, 0xC1	; 193
     200:	70 e1       	ldi	r23, 0x10	; 16
     202:	86 3c       	cpi	r24, 0xC6	; 198
     204:	64 6c       	ori	r22, 0xC4	; 196
     206:	b0 e1       	ldi	r27, 0x10	; 16
     208:	e3 0f       	add	r30, r19
     20a:	23 8f       	std	Z+27, r18	; 0x1b
     20c:	0f 1e       	adc	r0, r31
     20e:	3e 38       	cpi	r19, 0x8E	; 142
     210:	3c 38       	cpi	r19, 0x8C	; 140
     212:	7b 8f       	std	Y+27, r23	; 0x1b
     214:	07 0e       	add	r0, r23
     216:	3c f4       	brge	.+14     	; 0x226 <__trampolines_end+0x1be>
     218:	17 1e       	adc	r1, r23
     21a:	3c 78       	andi	r19, 0x8C	; 140
     21c:	f2 9e       	mul	r15, r18
     21e:	72 49       	sbci	r23, 0x92	; 146
     220:	e3 25       	eor	r30, r3
     222:	36 38       	cpi	r19, 0x86	; 134
     224:	58 39       	cpi	r21, 0x98	; 152
     226:	e2 de       	rcall	.-572    	; 0xffffffec <__eeprom_end+0xff7effec>
     228:	3c 78       	andi	r19, 0x8C	; 140
     22a:	78 e1       	ldi	r23, 0x18	; 24
     22c:	c7 61       	ori	r28, 0x17	; 23
     22e:	e1 e1       	ldi	r30, 0x11	; 17
     230:	b0 f0       	brcs	.+44     	; 0x25e <__trampolines_end+0x1f6>
     232:	f0 c3       	rjmp	.+2016   	; 0xa14 <inBlendLength+0x1c>
     234:	c7 0e       	add	r12, r23
     236:	38 c0       	rjmp	.+112    	; 0x2a8 <__trampolines_end+0x240>
     238:	f0 ce       	rjmp	.-544    	; 0x1a <__FUSE_REGION_LENGTH__+0x17>
     23a:	73 73       	andi	r23, 0x33	; 51
     23c:	18 34       	cpi	r17, 0x48	; 72
     23e:	b0 e1       	ldi	r27, 0x10	; 16
     240:	c7 8e       	std	Z+31, r12	; 0x1f
     242:	1c 3c       	cpi	r17, 0xCC	; 204
     244:	f8 38       	cpi	r31, 0x88	; 136
     246:	f0 e1       	ldi	r31, 0x10	; 16
     248:	c1 8b       	std	Z+17, r28	; 0x11
     24a:	86 8f       	std	Z+30, r24	; 0x1e
     24c:	1c 78       	andi	r17, 0x8C	; 140
     24e:	70 f0       	brcs	.+28     	; 0x26c <__trampolines_end+0x204>
     250:	78 ac       	ldd	r7, Y+56	; 0x38
     252:	b1 8f       	std	Z+25, r27	; 0x19
     254:	39 31       	cpi	r19, 0x19	; 25
     256:	db 38       	cpi	r29, 0x8B	; 139
     258:	61 c3       	rjmp	.+1730   	; 0x91c <ampl1data+0x14>
     25a:	0e 0e       	add	r0, r30
     25c:	38 78       	andi	r19, 0x88	; 136
     25e:	73 17       	cp	r23, r19
     260:	1e 39       	cpi	r17, 0x9E	; 158
     262:	1e 38       	cpi	r17, 0x8E	; 142
     264:	64 e1       	ldi	r22, 0x14	; 20
     266:	f1 c1       	rjmp	.+994    	; 0x64a <multtable+0xe2>
     268:	4e 0f       	add	r20, r30
     26a:	40 a2       	std	Z+32, r4	; 0x20
     26c:	02 c5       	rjmp	.+2564   	; 0xc72 <signInputTable2+0x2a>
     26e:	8f 81       	ldd	r24, Y+7	; 0x07
     270:	a1 fc       	sbrc	r10, 1
     272:	12 08       	sbc	r1, r2
     274:	64 e0       	ldi	r22, 0x04	; 4
     276:	3c 22       	and	r3, r28
     278:	e0 45       	sbci	r30, 0x50	; 80
     27a:	07 8e       	std	Z+31, r0	; 0x1f
     27c:	0c 32       	cpi	r16, 0x2C	; 44
     27e:	90 f0       	brcs	.+36     	; 0x2a4 <__trampolines_end+0x23c>
     280:	1f 20       	and	r1, r15
     282:	49 e0       	ldi	r20, 0x09	; 9
     284:	f8 0c       	add	r15, r8
     286:	60 f0       	brcs	.+24     	; 0x2a0 <__trampolines_end+0x238>
     288:	17 1a       	sub	r1, r23
     28a:	41 aa       	std	Z+49, r4	; 0x31
     28c:	a4 d0       	rcall	.+328    	; 0x3d6 <__trampolines_end+0x36e>
     28e:	8d 12       	cpse	r8, r29
     290:	82 1e       	adc	r8, r18
     292:	1e 03       	fmul	r17, r22
     294:	f8 3e       	cpi	r31, 0xE8	; 232
     296:	03 0c       	add	r0, r3
     298:	73 80       	ldd	r7, Z+3	; 0x03
     29a:	70 44       	sbci	r23, 0x40	; 64
     29c:	26 03       	mulsu	r18, r22
     29e:	24 e1       	ldi	r18, 0x14	; 20
     2a0:	3e 04       	cpc	r3, r14
     2a2:	4e 04       	cpc	r4, r14
     2a4:	1c c1       	rjmp	.+568    	; 0x4de <__LOCK_REGION_LENGTH__+0xde>
     2a6:	09 cc       	rjmp	.-2030   	; 0xfffffaba <__eeprom_end+0xff7efaba>
     2a8:	9e 90       	ld	r9, -X
     2aa:	21 07       	cpc	r18, r17
     2ac:	90 43       	sbci	r25, 0x30	; 48
     2ae:	64 c0       	rjmp	.+200    	; 0x378 <__trampolines_end+0x310>
     2b0:	0f c6       	rjmp	.+3102   	; 0xed0 <__vector_20+0x5a>
     2b2:	90 9c       	mul	r9, r0
     2b4:	c1 5b       	subi	r28, 0xB1	; 177
     2b6:	03 e2       	ldi	r16, 0x23	; 35
     2b8:	1d 81       	ldd	r17, Y+5	; 0x05
     2ba:	e0 5e       	subi	r30, 0xE0	; 224
     2bc:	1d 03       	fmul	r17, r21
     2be:	84 b8       	out	0x04, r8	; 4
     2c0:	2c 0f       	add	r18, r28
     2c2:	80 b1       	in	r24, 0x00	; 0
     2c4:	83 e0       	ldi	r24, 0x03	; 3
     2c6:	30 41       	sbci	r19, 0x10	; 16
     2c8:	1e 43       	sbci	r17, 0x3E	; 62
     2ca:	89 83       	std	Y+1, r24	; 0x01
     2cc:	50 fc       	sbrc	r5, 0
     2ce:	24 2e       	mov	r2, r20
     2d0:	13 83       	std	Z+3, r17	; 0x03
     2d2:	f1 7c       	andi	r31, 0xC1	; 193
     2d4:	4c 2c       	mov	r4, r12
     2d6:	c9 0d       	add	r28, r9
     2d8:	83 b0       	in	r8, 0x03	; 3
     2da:	b5 82       	std	Z+5, r11	; 0x05
     2dc:	e4 e8       	ldi	r30, 0x84	; 132
     2de:	06 9c       	mul	r0, r6
     2e0:	07 a0       	ldd	r0, Z+39	; 0x27
     2e2:	99 1d       	adc	r25, r9
     2e4:	07 3e       	cpi	r16, 0xE7	; 231
     2e6:	82 8f       	std	Z+26, r24	; 0x1a
     2e8:	70 30       	cpi	r23, 0x00	; 0
     2ea:	74 40       	sbci	r23, 0x04	; 4
     2ec:	ca 10       	cpse	r12, r10
     2ee:	e4 e8       	ldi	r30, 0x84	; 132
     2f0:	0f 92       	push	r0
     2f2:	14 3f       	cpi	r17, 0xF4	; 244
     2f4:	06 f8       	bld	r0, 6
     2f6:	84 88       	ldd	r8, Z+20	; 0x14
     2f8:	43 81       	ldd	r20, Z+3	; 0x03
     2fa:	0a 34       	cpi	r16, 0x4A	; 74
     2fc:	39 41       	sbci	r19, 0x19	; 25
     2fe:	c6 e3       	ldi	r28, 0x36	; 54
     300:	1c 47       	sbci	r17, 0x7C	; 124
     302:	03 b0       	in	r0, 0x03	; 3
     304:	b8 13       	cpse	r27, r24
     306:	0a c2       	rjmp	.+1044   	; 0x71c <rectangle+0xb4>
     308:	64 f8       	bld	r6, 4
     30a:	18 f9       	.word	0xf918	; ????
     30c:	60 b3       	in	r22, 0x10	; 16
     30e:	c0 65       	ori	r28, 0x50	; 80
     310:	20 60       	ori	r18, 0x00	; 0
     312:	a6 8c       	ldd	r10, Z+30	; 0x1e
     314:	c3 81       	ldd	r28, Z+3	; 0x03
     316:	20 30       	cpi	r18, 0x00	; 0
     318:	26 1e       	adc	r2, r22
     31a:	1c 38       	cpi	r17, 0x8C	; 140
     31c:	d3 01       	movw	r26, r6
     31e:	b0 26       	eor	r11, r16
     320:	40 f4       	brcc	.+16     	; 0x332 <__trampolines_end+0x2ca>
     322:	0b c3       	rjmp	.+1558   	; 0x93a <ampl1data+0x32>
     324:	42 1f       	adc	r20, r18
     326:	85 32       	cpi	r24, 0x25	; 37
     328:	26 60       	ori	r18, 0x06	; 6
     32a:	40 c9       	rjmp	.-3456   	; 0xfffff5ac <__eeprom_end+0xff7ef5ac>
     32c:	cb 01       	movw	r24, r22
     32e:	ec 11       	cpse	r30, r12
     330:	28 40       	sbci	r18, 0x08	; 8
     332:	fa 04       	cpc	r15, r10
     334:	34 e0       	ldi	r19, 0x04	; 4
     336:	70 4c       	sbci	r23, 0xC0	; 192
     338:	8c 1d       	adc	r24, r12
     33a:	07 69       	ori	r16, 0x97	; 151
     33c:	03 16       	cp	r0, r19
     33e:	c8 04       	cpc	r12, r8
     340:	23 e8       	ldi	r18, 0x83	; 131
     342:	c6 9a       	sbi	0x18, 6	; 24
     344:	0b 1a       	sub	r0, r27
     346:	03 e0       	ldi	r16, 0x03	; 3
     348:	76 06       	cpc	r7, r22
     34a:	05 cf       	rjmp	.-502    	; 0x156 <__trampolines_end+0xee>
     34c:	1e bc       	out	0x2e, r1	; 46
     34e:	58 31       	cpi	r21, 0x18	; 24
     350:	71 66       	ori	r23, 0x61	; 97
     352:	00 f8       	bld	r0, 0
     354:	3f 04       	cpc	r3, r15
     356:	fc 0c       	add	r15, r12
     358:	74 27       	eor	r23, r20
     35a:	8a 80       	ldd	r8, Y+2	; 0x02
     35c:	71 c2       	rjmp	.+1250   	; 0x840 <sinus+0xd8>
     35e:	3a 26       	eor	r3, r26
     360:	06 c0       	rjmp	.+12     	; 0x36e <__trampolines_end+0x306>
     362:	1f 05       	cpc	r17, r15
     364:	0f 98       	cbi	0x01, 7	; 1
     366:	40 ae       	std	Z+56, r4	; 0x38
     368:	01 7f       	andi	r16, 0xF1	; 241
     36a:	c0 07       	cpc	r28, r16
     36c:	ff 00       	.word	0x00ff	; ????
     36e:	0e fe       	.word	0xfe0e	; ????
     370:	00 03       	mulsu	r16, r16
     372:	df 80       	ldd	r13, Y+7	; 0x07
     374:	03 ef       	ldi	r16, 0xF3	; 243
     376:	80 1b       	sub	r24, r16
     378:	f1 c2       	rjmp	.+1506   	; 0x95c <freq3data+0x4>
     37a:	00 e7       	ldi	r16, 0x70	; 112
     37c:	e0 18       	sub	r14, r0
     37e:	fc e0       	ldi	r31, 0x0C	; 12
     380:	21 fc       	sbrc	r2, 1
     382:	80 3c       	cpi	r24, 0xC0	; 192
     384:	fc 40       	sbci	r31, 0x0C	; 12
     386:	0e 7e       	andi	r16, 0xEE	; 238
     388:	00 3f       	cpi	r16, 0xF0	; 240
     38a:	3e 00       	.word	0x003e	; ????
     38c:	0f fe       	.word	0xfe0f	; ????
     38e:	00 1f       	adc	r16, r16
     390:	ff 00       	.word	0x00ff	; ????
     392:	3e f0       	brts	.+14     	; 0x3a2 <__trampolines_end+0x33a>
     394:	07 fc       	sbrc	r0, 7
     396:	00 7e       	andi	r16, 0xE0	; 224
     398:	10 3f       	cpi	r17, 0xF0	; 240
     39a:	ff 00       	.word	0x00ff	; ????
     39c:	3f 38       	cpi	r19, 0x8F	; 143
     39e:	0e 7c       	andi	r16, 0xCE	; 206
     3a0:	01 87       	std	Z+9, r16	; 0x09
     3a2:	0c fc       	.word	0xfc0c	; ????
     3a4:	c7 00       	.word	0x00c7	; ????
     3a6:	3e 04       	cpc	r3, r14
     3a8:	0f 3e       	cpi	r16, 0xEF	; 239
     3aa:	1f 0f       	add	r17, r31
     3ac:	0f 1f       	adc	r16, r31
     3ae:	0f 02       	muls	r16, r31
     3b0:	83 87       	std	Z+11, r24	; 0x0b
     3b2:	cf 03       	fmulsu	r20, r23
     3b4:	87 0f       	add	r24, r23
     3b6:	3f c0       	rjmp	.+126    	; 0x436 <__LOCK_REGION_LENGTH__+0x36>
     3b8:	07 9e       	mul	r0, r23
     3ba:	60 3f       	cpi	r22, 0xF0	; 240
     3bc:	c0 03       	fmuls	r20, r16
     3be:	fe 00       	.word	0x00fe	; ????
     3c0:	3f e0       	ldi	r19, 0x0F	; 15
     3c2:	77 e1       	ldi	r23, 0x17	; 23
     3c4:	c0 fe       	sbrs	r12, 0
     3c6:	e0 c3       	rjmp	.+1984   	; 0xb88 <phonemeStressedLengthTable+0x2f>
     3c8:	e0 01       	movw	r28, r0
     3ca:	df f8       	.word	0xf8df	; ????
     3cc:	03 07       	cpc	r16, r19
     3ce:	00 7e       	andi	r16, 0xE0	; 224
     3d0:	70 00       	.word	0x0070	; ????
     3d2:	7c 38       	cpi	r23, 0x8C	; 140
     3d4:	18 fe       	.word	0xfe18	; ????
     3d6:	0c 1e       	adc	r0, r28
     3d8:	78 1c       	adc	r7, r8
     3da:	7c 3e       	cpi	r23, 0xEC	; 236
     3dc:	0e 1f       	adc	r16, r30
     3de:	1e 1e       	adc	r1, r30
     3e0:	3e 00       	.word	0x003e	; ????
     3e2:	7f 83       	std	Y+7, r23	; 0x07
     3e4:	07 db       	rcall	.-2546   	; 0xfffff9f4 <__eeprom_end+0xff7ef9f4>
     3e6:	87 83       	std	Z+7, r24	; 0x07
     3e8:	07 c7       	rjmp	.+3598   	; 0x11f8 <RenderSample+0xf2>
     3ea:	07 10       	cpse	r0, r7
     3ec:	71 ff       	sbrs	r23, 1
     3ee:	00 3f       	cpi	r16, 0xF0	; 240
     3f0:	e2 01       	movw	r28, r4
     3f2:	e0 c1       	rjmp	.+960    	; 0x7b4 <sinus+0x4c>
     3f4:	c3 e1       	ldi	r28, 0x13	; 19
     3f6:	00 7f       	andi	r16, 0xF0	; 240
     3f8:	c0 05       	cpc	r28, r0
     3fa:	f0 20       	and	r15, r0
     3fc:	f8 f0       	brcs	.+62     	; 0x43c <__LOCK_REGION_LENGTH__+0x3c>
     3fe:	70 fe       	sbrs	r7, 0
     400:	78 79       	andi	r23, 0x98	; 152
     402:	f8 02       	muls	r31, r24
     404:	3f 0c       	add	r3, r15
     406:	8f 03       	fmulsu	r16, r23
     408:	0f 9f       	mul	r16, r31
     40a:	e0 c1       	rjmp	.+960    	; 0x7cc <sinus+0x64>
     40c:	c7 87       	std	Z+15, r28	; 0x0f
     40e:	03 c3       	rjmp	.+1542   	; 0xa16 <inBlendLength+0x1e>
     410:	c3 b0       	in	r12, 0x03	; 3
     412:	e1 e1       	ldi	r30, 0x11	; 17
     414:	c1 e3       	ldi	r28, 0x31	; 49
     416:	e0 71       	andi	r30, 0x10	; 16
     418:	f0 00       	.word	0x00f0	; ????
     41a:	fc 70       	andi	r31, 0x0C	; 12
     41c:	7c 0c       	add	r7, r12
     41e:	3e 38       	cpi	r19, 0x8E	; 142
     420:	0e 1c       	adc	r0, r14
     422:	70 c3       	rjmp	.+1760   	; 0xb04 <tab48426>
     424:	c7 03       	fmuls	r20, r23
     426:	81 c1       	rjmp	.+770    	; 0x72a <rectangle+0xc2>
     428:	c7 e7       	ldi	r28, 0x77	; 119
     42a:	00 0f       	add	r16, r16
     42c:	c7 87       	std	Z+15, r28	; 0x0f
     42e:	19 09       	sbc	r17, r9
     430:	ef c4       	rjmp	.+2526   	; 0xe10 <__vector_16+0xa0>
     432:	33 e0       	ldi	r19, 0x03	; 3
     434:	c1 fc       	sbrc	r12, 1
     436:	f8 70       	andi	r31, 0x08	; 8
     438:	f0 78       	andi	r31, 0x80	; 128
     43a:	f8 f0       	brcs	.+62     	; 0x47a <__LOCK_REGION_LENGTH__+0x7a>
     43c:	61 c7       	rjmp	.+3778   	; 0x1300 <AddInflection+0x7e>
     43e:	00 1f       	adc	r16, r16
     440:	f8 01       	movw	r30, r16
     442:	7c f8       	.word	0xf87c	; ????
     444:	f0 78       	andi	r31, 0x80	; 128
     446:	70 3c       	cpi	r23, 0xC0	; 192
     448:	7c ce       	rjmp	.-776    	; 0x142 <__trampolines_end+0xda>
     44a:	0e 21       	and	r16, r14
     44c:	83 cf       	rjmp	.-250    	; 0x354 <__trampolines_end+0x2ec>
     44e:	08 07       	cpc	r16, r24
     450:	8f 08       	sbc	r8, r15
     452:	c1 87       	std	Z+9, r28	; 0x09
     454:	8f 80       	ldd	r8, Y+7	; 0x07
     456:	c7 e3       	ldi	r28, 0x37	; 55
     458:	00 07       	cpc	r16, r16
     45a:	f8 e0       	ldi	r31, 0x08	; 8
     45c:	ef 00       	.word	0x00ef	; ????
     45e:	39 f7       	brne	.-50     	; 0x42e <__LOCK_REGION_LENGTH__+0x2e>
     460:	80 0e       	add	r8, r16
     462:	f8 e1       	ldi	r31, 0x18	; 24
     464:	e3 f8       	bld	r14, 3
     466:	21 9f       	mul	r18, r17
     468:	c0 ff       	sbrs	r28, 0
     46a:	03 f8       	bld	r0, 3
     46c:	07 c0       	rjmp	.+14     	; 0x47c <__LOCK_REGION_LENGTH__+0x7c>
     46e:	1f f8       	.word	0xf81f	; ????
     470:	c4 04       	cpc	r12, r4
     472:	fc c4       	rjmp	.+2552   	; 0xe6c <__vector_18+0x52>
     474:	c1 bc       	out	0x21, r12	; 33
     476:	87 f0       	brie	.+32     	; 0x498 <__LOCK_REGION_LENGTH__+0x98>
     478:	0f c0       	rjmp	.+30     	; 0x498 <__LOCK_REGION_LENGTH__+0x98>
     47a:	7f 05       	cpc	r23, r15
     47c:	e0 25       	eor	r30, r0
     47e:	ec c0       	rjmp	.+472    	; 0x658 <multtable+0xf0>
     480:	3e 84       	ldd	r3, Y+14	; 0x0e
     482:	47 f0       	brie	.+16     	; 0x494 <__LOCK_REGION_LENGTH__+0x94>
     484:	8e 03       	fmulsu	r16, r22
     486:	f8 03       	fmulsu	r23, r16
     488:	fb c0       	rjmp	.+502    	; 0x680 <rectangle+0x18>
     48a:	19 f8       	.word	0xf819	; ????
     48c:	07 9c       	mul	r0, r7
     48e:	0c 17       	cp	r16, r28
     490:	f8 07       	cpc	r31, r24
     492:	e0 1f       	adc	r30, r16
     494:	a1 fc       	sbrc	r10, 1
     496:	0f fc       	.word	0xfc0f	; ????
     498:	01 f0       	breq	.+0      	; 0x49a <__LOCK_REGION_LENGTH__+0x9a>
     49a:	3f 00       	.word	0x003f	; ????
     49c:	fe 03       	fmulsu	r23, r22
     49e:	f0 1f       	adc	r31, r16
     4a0:	00 fd       	sbrc	r16, 0
     4a2:	00 ff       	sbrs	r16, 0
     4a4:	88 0d       	add	r24, r8
     4a6:	f9 01       	movw	r30, r18
     4a8:	ff 00       	.word	0x00ff	; ????
     4aa:	70 07       	cpc	r23, r16
     4ac:	c0 3e       	cpi	r28, 0xE0	; 224
     4ae:	42 f3       	brmi	.-48     	; 0x480 <__LOCK_REGION_LENGTH__+0x80>
     4b0:	0d c4       	rjmp	.+2074   	; 0xccc <signInputTable1+0x33>
     4b2:	7f 80       	ldd	r7, Y+7	; 0x07
     4b4:	fc 07       	cpc	r31, r28
     4b6:	f0 5e       	subi	r31, 0xE0	; 224
     4b8:	c0 3f       	cpi	r28, 0xF0	; 240
     4ba:	00 78       	andi	r16, 0x80	; 128
     4bc:	3f 81       	ldd	r19, Y+7	; 0x07
     4be:	ff 01       	movw	r30, r30
     4c0:	f8 01       	movw	r30, r16
     4c2:	c3 e8       	ldi	r28, 0x83	; 131
     4c4:	0c e4       	ldi	r16, 0x4C	; 76
     4c6:	64 8f       	std	Z+28, r22	; 0x1c
     4c8:	e4 0f       	add	r30, r20
     4ca:	f0 07       	cpc	r31, r16
     4cc:	f0 c2       	rjmp	.+1504   	; 0xaae <blendRank+0x16>
     4ce:	1f 00       	.word	0x001f	; ????
     4d0:	7f c0       	rjmp	.+254    	; 0x5d0 <multtable+0x68>
     4d2:	6f 80       	ldd	r6, Y+7	; 0x07
     4d4:	7e 03       	fmul	r23, r22
     4d6:	f8 07       	cpc	r31, r24
     4d8:	f0 3f       	cpi	r31, 0xF0	; 240
     4da:	c0 78       	andi	r28, 0x80	; 128
     4dc:	0f 82       	std	Y+7, r0	; 0x07
     4de:	07 fe       	sbrs	r0, 7
     4e0:	22 77       	andi	r18, 0x72	; 114
     4e2:	70 02       	muls	r23, r16
     4e4:	76 03       	mulsu	r23, r22
     4e6:	fe 00       	.word	0x00fe	; ????
     4e8:	fe 67       	ori	r31, 0x7E	; 126
     4ea:	00 7c       	andi	r16, 0xC0	; 192
     4ec:	c7 f1       	brie	.+112    	; 0x55e <__LOCK_REGION_LENGTH__+0x15e>
     4ee:	8e c6       	rjmp	.+3356   	; 0x120c <RenderSample+0x106>
     4f0:	3b e0       	ldi	r19, 0x0B	; 11
     4f2:	3f 84       	ldd	r3, Y+15	; 0x0f
     4f4:	f3 19       	sub	r31, r3
     4f6:	d8 03       	fmulsu	r21, r16
     4f8:	99 fc       	.word	0xfc99	; ????
     4fa:	09 b8       	out	0x09, r0	; 9
     4fc:	0f f8       	.word	0xf80f	; ????
     4fe:	00 9d       	mul	r16, r0
     500:	24 61       	ori	r18, 0x14	; 20
     502:	f9 0d       	add	r31, r9
     504:	00 fd       	sbrc	r16, 0
     506:	03 f0       	brvs	.+0      	; 0x508 <__LOCK_REGION_LENGTH__+0x108>
     508:	1f 90       	pop	r1
     50a:	3f 01       	movw	r6, r30
     50c:	f8 1f       	adc	r31, r24
     50e:	d0 0f       	add	r29, r16
     510:	f8 37       	cpi	r31, 0x78	; 120
     512:	01 f8       	bld	r0, 1
     514:	07 f0       	brie	.+0      	; 0x516 <__LOCK_REGION_LENGTH__+0x116>
     516:	0f c0       	rjmp	.+30     	; 0x536 <__LOCK_REGION_LENGTH__+0x136>
     518:	3f 00       	.word	0x003f	; ????
     51a:	fe 03       	fmulsu	r23, r22
     51c:	f8 0f       	add	r31, r24
     51e:	c0 3f       	cpi	r28, 0xF0	; 240
     520:	00 fa       	bst	r0, 0
     522:	03 f0       	brvs	.+0      	; 0x524 <__LOCK_REGION_LENGTH__+0x124>
     524:	0f 80       	ldd	r0, Y+7	; 0x07
     526:	ff 01       	movw	r30, r30
     528:	b8 07       	cpc	r27, r24
     52a:	f0 01       	movw	r30, r0
     52c:	fc 01       	movw	r30, r24
     52e:	bc 80       	ldd	r11, Y+4	; 0x04
     530:	13 1e       	adc	r1, r19
     532:	00 7f       	andi	r16, 0xF0	; 240
     534:	e1 40       	sbci	r30, 0x01	; 1
     536:	7f a0       	ldd	r7, Y+39	; 0x27
     538:	7f b0       	in	r7, 0x0f	; 15
     53a:	00 3f       	cpi	r16, 0xF0	; 240
     53c:	c0 1f       	adc	r28, r16
     53e:	c0 38       	cpi	r28, 0x80	; 128
     540:	0f f0       	brie	.+2      	; 0x544 <__LOCK_REGION_LENGTH__+0x144>
     542:	1f 80       	ldd	r1, Y+7	; 0x07
     544:	ff 01       	movw	r30, r30
     546:	fc 03       	fmulsu	r23, r20
     548:	f1 7e       	andi	r31, 0xE1	; 225
     54a:	01 fe       	sbrs	r0, 1
     54c:	01 f0       	breq	.+0      	; 0x54e <__LOCK_REGION_LENGTH__+0x14e>
     54e:	ff 00       	.word	0x00ff	; ????
     550:	7f c0       	rjmp	.+254    	; 0x650 <multtable+0xe8>
     552:	1d 07       	cpc	r17, r29
     554:	f0 0f       	add	r31, r16
     556:	c0 7e       	andi	r28, 0xE0	; 224
     558:	06 e0       	ldi	r16, 0x06	; 6
     55a:	07 e0       	ldi	r16, 0x07	; 7
     55c:	0f f8       	.word	0xf80f	; ????
     55e:	06 c1       	rjmp	.+524    	; 0x76c <sinus+0x4>
     560:	fe 01       	movw	r30, r28
     562:	fc 03       	fmulsu	r23, r20
     564:	e0 0f       	add	r30, r16
     566:	00 fc       	sbrc	r0, 0

00000568 <multtable>:
	...
     578:	00 00 01 01 02 02 03 03 04 04 05 05 06 06 07 07     ................
     588:	00 01 02 03 04 05 06 07 08 09 0a 0b 0c 0d 0e 0f     ................
     598:	00 01 03 04 06 07 09 0a 0c 0d 0f 10 12 13 15 16     ................
     5a8:	00 02 04 06 08 0a 0c 0e 10 12 14 16 18 1a 1c 1e     ................
     5b8:	00 02 05 07 0a 0c 0f 11 14 16 19 1b 1e 20 23 25     ............. #%
     5c8:	00 03 06 09 0c 0f 12 15 18 1b 1e 21 24 27 2a 2d     ...........!$'*-
     5d8:	00 03 07 0a 0e 11 15 18 1c 1f 23 26 2a 2d 31 34     ..........#&*-14
     5e8:	00 fc f8 f4 f0 ec e8 e4 e0 dc d8 d4 d0 cc c8 c4     ................
     5f8:	00 fc f9 f5 f2 ee eb e7 e4 e0 dd d9 d6 d2 cf cb     ................
     608:	00 fd fa f7 f4 f1 ee eb e8 e5 e2 df dc d9 d6 d3     ................
     618:	00 fd fb f8 f6 f3 f1 ee ec e9 e7 e4 e2 df dd da     ................
     628:	00 fe fc fa f8 f6 f4 f2 f0 ee ec ea e8 e6 e4 e2     ................
     638:	00 fe fd fb fa f8 f7 f5 f4 f2 f1 ef ee ec eb e9     ................
     648:	00 ff fe fd fc fb fa f9 f8 f7 f6 f5 f4 f3 f2 f1     ................
     658:	00 ff ff fe fe fd fd fc fc fb fb fa fa f9 f9 f8     ................

00000668 <rectangle>:
     668:	90 90 90 90 90 90 90 90 90 90 90 90 90 90 90 90     ................
     678:	90 90 90 90 90 90 90 90 90 90 90 90 90 90 90 90     ................
     688:	90 90 90 90 90 90 90 90 90 90 90 90 90 90 90 90     ................
     698:	90 90 90 90 90 90 90 90 90 90 90 90 90 90 90 90     ................
     6a8:	90 90 90 90 90 90 90 90 90 90 90 90 90 90 90 90     ................
     6b8:	90 90 90 90 90 90 90 90 90 90 90 90 90 90 90 90     ................
     6c8:	90 90 90 90 90 90 90 90 90 90 90 90 90 90 90 90     ................
     6d8:	90 90 90 90 90 90 90 90 90 90 90 90 90 90 90 90     ................
     6e8:	70 70 70 70 70 70 70 70 70 70 70 70 70 70 70 70     pppppppppppppppp
     6f8:	70 70 70 70 70 70 70 70 70 70 70 70 70 70 70 70     pppppppppppppppp
     708:	70 70 70 70 70 70 70 70 70 70 70 70 70 70 70 70     pppppppppppppppp
     718:	70 70 70 70 70 70 70 70 70 70 70 70 70 70 70 70     pppppppppppppppp
     728:	70 70 70 70 70 70 70 70 70 70 70 70 70 70 70 70     pppppppppppppppp
     738:	70 70 70 70 70 70 70 70 70 70 70 70 70 70 70 70     pppppppppppppppp
     748:	70 70 70 70 70 70 70 70 70 70 70 70 70 70 70 70     pppppppppppppppp
     758:	70 70 70 70 70 70 70 70 70 70 70 70 70 70 70 70     pppppppppppppppp

00000768 <sinus>:
     768:	00 00 00 10 10 10 10 10 10 20 20 20 20 20 20 30     .........      0
     778:	30 30 30 30 30 30 40 40 40 40 40 40 40 50 50 50     000000@@@@@@@PPP
     788:	50 50 50 50 50 60 60 60 60 60 60 60 60 60 60 60     PPPPP```````````
     798:	60 70 70 70 70 70 70 70 70 70 70 70 70 70 70 70     `ppppppppppppppp
     7a8:	70 70 70 70 70 70 70 70 70 70 70 70 70 70 70 70     pppppppppppppppp
     7b8:	60 60 60 60 60 60 60 60 60 60 60 60 50 50 50 50     ````````````PPPP
     7c8:	50 50 50 50 40 40 40 40 40 40 40 30 30 30 30 30     PPPP@@@@@@@00000
     7d8:	30 30 20 20 20 20 20 20 10 10 10 10 10 10 00 00     00      ........
     7e8:	00 00 00 f0 f0 f0 f0 f0 f0 e0 e0 e0 e0 e0 e0 d0     ................
     7f8:	d0 d0 d0 d0 d0 d0 c0 c0 c0 c0 c0 c0 c0 b0 b0 b0     ................
     808:	b0 b0 b0 b0 b0 a0 a0 a0 a0 a0 a0 a0 a0 a0 a0 a0     ................
     818:	a0 90 90 90 90 90 90 90 90 90 90 90 90 90 90 90     ................
     828:	90 90 90 90 90 90 90 90 90 90 90 90 90 90 90 90     ................
     838:	a0 a0 a0 a0 a0 a0 a0 a0 a0 a0 a0 a0 b0 b0 b0 b0     ................
     848:	b0 b0 b0 b0 c0 c0 c0 c0 c0 c0 c0 d0 d0 d0 d0 d0     ................
     858:	d0 d0 e0 e0 e0 e0 e0 e0 f0 f0 f0 f0 f0 f0 00 00     ................

00000868 <ampl3data>:
     868:	00 00 00 00 00 08 07 08 08 01 01 00 01 00 07 05     ................
     878:	01 00 06 01 00 07 00 05 01 00 08 00 00 03 00 00     ................
     888:	00 00 00 00 00 00 00 01 00 00 00 00 00 01 0e 01     ................
     898:	09 01 00 01 00 00 00 00 00 00 00 00 00 00 00 00     ................
	...
     8b0:	00 07 00 00 05 00 13 10                             ........

000008b8 <ampl2data>:
     8b8:	00 00 00 00 00 0a 0b 0d 0e 0d 0c 0c 0b 09 0b 0b     ................
     8c8:	0c 0c 0c 08 08 0c 08 0a 08 08 0a 03 09 06 00 00     ................
     8d8:	00 00 00 00 00 00 03 05 03 04 00 00 00 05 0a 02     ................
     8e8:	0e 0d 0c 0d 0c 08 00 01 00 00 01 00 00 01 00 00     ................
     8f8:	01 00 00 00 00 00 00 00 00 0a 00 00 0a 00 00 00     ................

00000908 <ampl1data>:
     908:	00 00 00 00 00 0d 0d 0e 0f 0f 0f 0f 0f 0c 0d 0c     ................
     918:	0f 0f 0d 0d 0d 0e 0d 0c 0d 0d 0d 0c 09 09 00 00     ................
     928:	00 00 00 00 00 00 0b 0b 0b 0b 00 00 01 0b 00 02     ................
     938:	0e 0f 0f 0f 0f 0d 02 04 00 02 04 00 01 04 00 01     ................
     948:	04 00 00 00 00 00 00 00 00 0c 00 00 00 00 0f 0f     ................

00000958 <freq3data>:
     958:	00 5b 5b 5b 5b 6e 5d 5b 58 59 57 58 52 59 5d 3e     .[[[[n][XYWXRY]>
     968:	52 58 3e 6e 50 5d 5a 3c 6e 5a 6e 51 79 65 79 5b     RX>nP]Z<nZnQyey[
     978:	63 6a 51 79 5d 52 5d 67 4c 5d 65 65 79 65 79 00     cjQy]R]gL]eeyey.
     988:	5a 58 58 58 58 52 51 51 51 79 79 79 70 6e 6e 5e     ZXXXXRQQQyyypnn^
     998:	5e 5e 51 51 51 79 79 79 65 65 70 5e 5e 5e 08 01     ^^QQQyyyeep^^^..

000009a8 <sampledConsonantFlags>:
	...
     9c8:	f1 e2 d3 bb 7c 95 01 02 03 03 00 72 00 02 00 00     ....|......r....
	...
     9e8:	00 00 00 1b 00 00 19 00 00 00 00 00 00 00 00 00     ................

000009f8 <inBlendLength>:
     9f8:	00 02 02 02 02 04 04 04 04 04 04 04 04 04 04 04     ................
     a08:	04 04 03 03 04 04 03 03 03 03 03 01 02 03 02 01     ................
     a18:	03 03 03 03 01 01 03 03 03 02 02 03 02 03 00 00     ................
     a28:	05 05 05 05 04 04 02 00 02 02 00 03 02 00 04 02     ................
     a38:	00 03 02 00 02 02 00 02 03 00 03 03 00 03 b0 a0     ................

00000a48 <outBlendLength>:
     a48:	00 02 02 02 02 04 04 04 04 04 04 04 04 04 04 04     ................
     a58:	04 04 03 02 04 04 02 02 02 02 02 01 01 01 01 01     ................
     a68:	01 01 01 01 01 01 02 02 02 01 00 01 00 01 00 05     ................
     a78:	05 05 05 05 04 04 02 00 01 02 00 01 02 00 01 02     ................
     a88:	00 01 02 00 02 02 00 01 03 00 02 03 00 02 a0 a0     ................

00000a98 <blendRank>:
     a98:	00 1f 1f 1f 1f 02 02 02 02 02 02 02 02 02 05 05     ................
     aa8:	02 0a 02 08 05 05 0b 0a 09 08 08 a0 08 08 17 1f     ................
     ab8:	12 12 12 12 1e 1e 14 14 14 14 17 17 1a 1a 1d 1d     ................
     ac8:	02 02 02 02 02 02 1a 1d 1b 1a 1d 1b 1a 1d 1b 1a     ................
     ad8:	1d 1b 17 1d 17 17 1d 17 17 1d 17 17 1d 17 17 17     ................

00000ae8 <amplitudeRescale>:
     ae8:	00 01 02 02 02 03 03 04 04 05 06 08 09 0b 0d 0f     ................
	...

00000af9 <tab47492>:
     af9:	00 00 e0 e6 ec f3 f9 00 06 0c 06                    ...........

00000b04 <tab48426>:
     b04:	18 1a 17 17 17                                      .....

00000b09 <phonemeLengthTable>:
     b09:	00 12 12 12 08 08 08 08 08 0b 06 0c 0a 05 05 0b     ................
     b19:	0a 0a 0a 09 08 07 09 07 06 08 06 07 07 07 02 05     ................
     b29:	02 02 02 02 02 02 06 06 07 06 06 02 08 03 01 1e     ................
     b39:	0d 0c 0c 0c 0e 09 06 01 02 05 01 01 06 01 02 06     ................
     b49:	01 02 08 02 02 04 02 02 06 01 04 06 01 04 c7 ff     ................

00000b59 <phonemeStressedLengthTable>:
     b59:	00 12 12 12 08 0b 09 0b 0e 0f 0b 10 0c 06 06 0e     ................
     b69:	0c 0e 0c 0b 08 08 0b 0a 09 08 08 08 08 08 03 05     ................
     b79:	02 02 02 02 02 02 06 06 08 06 06 02 09 04 02 01     ................
     b89:	0e 0f 0f 0f 0e 0e 08 02 02 07 02 01 07 02 02 07     ................
     b99:	02 02 08 02 02 06 02 02 07 02 04 07 01 04 05 05     ................

00000ba9 <flags2>:
     ba9:	80 c1 c1 c1 c1 00 00 00 00 00 00 00 00 00 00 00     ................
     bb9:	00 00 00 00 00 00 00 10 10 10 10 08 0c 08 04 40     ...............@
     bc9:	24 20 20 24 00 00 24 20 20 24 20 20 00 20 00 00     $  $..$  $  . ..
	...
     be1:	00 04 04 04 00 00 00 00 00 00 00 00 00 04 04 04     ................
     bf1:	00 00 00 00 00 00                                   ......

00000bf7 <flags>:
     bf7:	00 00 00 00 00 a4 a4 a4 a4 a4 a4 84 84 a4 a4 84     ................
     c07:	84 84 84 84 84 84 44 44 44 44 44 4c 4c 4c 48 4c     ......DDDDDLLLHL
     c17:	40 40 40 40 40 40 44 44 44 44 48 40 4c 44 00 00     @@@@@@DDDDH@LD..
     c27:	b4 b4 b4 94 94 94 4e 4e 4e 4e 4e 4e 4e 4e 4e 4e     ......NNNNNNNNNN
     c37:	4e 4e 4b 4b 4b 4b 4b 4b 4b 4b 4b 4b 4b 4b 80 c1     NNKKKKKKKKKKKK..
     c47:	c1                                                  .

00000c48 <signInputTable2>:
     c48:	2a 2a 2a 2a 2a 59 48 48 45 41 48 4f 48 58 58 52     *****YHHEAHOHXXR
     c58:	58 48 58 58 58 58 48 2a 2a 2a 2a 2a 2a 58 58 2a     XHXXXXH******XX*
     c68:	2a 48 2a 48 48 58 2a 48 2a 48 48 2a 2a 2a 2a 2a     *H*HHX*H*HH*****
     c78:	59 59 59 57 57 57 2a 2a 2a 2a 2a 2a 2a 2a 2a 58     YYYWWW*********X
     c88:	2a 2a 2a 2a 2a 2a 2a 2a 2a 2a 2a 58 2a 2a 4c 4d     ***********X**LM
     c98:	4e                                                  N

00000c99 <signInputTable1>:
     c99:	20 2e 3f 2c 2d 49 49 45 41 41 41 41 55 41 49 45      .?,-IIEAAAAUAIE
     ca9:	55 4f 52 4c 57 59 57 52 4c 57 59 4d 4e 4e 44 51     UORLWYWRLWYMNNDQ
     cb9:	53 53 46 54 2f 2f 5a 5a 56 44 43 2a 4a 2a 2a 2a     SSFT//ZZVDC*J***
     cc9:	45 41 4f 41 4f 55 42 2a 2a 44 2a 2a 47 2a 2a 47     EAOAOUB**D**G**G
     cd9:	2a 2a 50 2a 2a 54 2a 2a 4b 2a 2a 4b 2a 2a 55 55     **P**T**K**K**UU
     ce9:	55                                                  U

00000cea <stressInputTable>:
     cea:	2a 31 32 33 34 35 36 37 38 00                       *12345678.

00000cf4 <__ctors_end>:
     cf4:	11 24       	eor	r1, r1
     cf6:	1f be       	out	0x3f, r1	; 63
     cf8:	cf ef       	ldi	r28, 0xFF	; 255
     cfa:	d8 e0       	ldi	r29, 0x08	; 8
     cfc:	de bf       	out	0x3e, r29	; 62
     cfe:	cd bf       	out	0x3d, r28	; 61

00000d00 <__do_copy_data>:
     d00:	12 e0       	ldi	r17, 0x02	; 2
     d02:	a0 e0       	ldi	r26, 0x00	; 0
     d04:	b1 e0       	ldi	r27, 0x01	; 1
     d06:	e4 e9       	ldi	r30, 0x94	; 148
     d08:	f9 e2       	ldi	r31, 0x29	; 41
     d0a:	02 c0       	rjmp	.+4      	; 0xd10 <__do_copy_data+0x10>
     d0c:	05 90       	lpm	r0, Z+
     d0e:	0d 92       	st	X+, r0
     d10:	ae 33       	cpi	r26, 0x3E	; 62
     d12:	b1 07       	cpc	r27, r17
     d14:	d9 f7       	brne	.-10     	; 0xd0c <__do_copy_data+0xc>

00000d16 <__do_clear_bss>:
     d16:	28 e0       	ldi	r18, 0x08	; 8
     d18:	ae e3       	ldi	r26, 0x3E	; 62
     d1a:	b2 e0       	ldi	r27, 0x02	; 2
     d1c:	01 c0       	rjmp	.+2      	; 0xd20 <.do_clear_bss_start>

00000d1e <.do_clear_bss_loop>:
     d1e:	1d 92       	st	X+, r1

00000d20 <.do_clear_bss_start>:
     d20:	a8 39       	cpi	r26, 0x98	; 152
     d22:	b2 07       	cpc	r27, r18
     d24:	e1 f7       	brne	.-8      	; 0xd1e <.do_clear_bss_loop>
     d26:	f7 d0       	rcall	.+494    	; 0xf16 <main>
     d28:	0c 94 c8 14 	jmp	0x2990	; 0x2990 <_exit>

00000d2c <__bad_interrupt>:
     d2c:	69 c9       	rjmp	.-3374   	; 0x0 <__vectors>

00000d2e <pwmAudio_init>:
uint8_t _readSample;

/* initialise the PWM */
void pwmAudio_init( CircularBuffer *sampleBuffer )
{
	_sampleBuffer = sampleBuffer;
     d2e:	90 93 45 02 	sts	0x0245, r25	; 0x800245 <_sampleBuffer+0x1>
     d32:	80 93 44 02 	sts	0x0244, r24	; 0x800244 <_sampleBuffer>

    DDRB = _BV(PB1); // Set up PORTB.1 (aka OC1A) pin as output
     d36:	82 e0       	ldi	r24, 0x02	; 2
     d38:	84 b9       	out	0x04, r24	; 4

	/* Set-up Timer 1 (PWM) */
    TCCR1A =         // Timer/Counter 1, Control Register A (See section 20.14.1 in data-sheet)
     d3a:	81 e8       	ldi	r24, 0x81	; 129
     d3c:	80 93 80 00 	sts	0x0080, r24	; 0x800080 <__TEXT_REGION_LENGTH__+0x7e0080>
		_BV(COM1A1)  // Set the external OC1A pin (PortB.1) to 0, upon matching counter with OCR1A
	  | _BV(WGM10);  // Fast PWM, 8bit (1st bit of Waveform Generation Mode option)

    TCCR1B =		// Timer/Counter 1, Control Register B (See section 20.14.1 in data-sheet)
     d40:	89 e0       	ldi	r24, 0x09	; 9
     d42:	80 93 81 00 	sts	0x0081, r24	; 0x800081 <__TEXT_REGION_LENGTH__+0x7e0081>
		_BV(WGM12)  // Fast PWM, 8bit (2nd bit of Waveform Generation Mode option)
	  | _BV(CS10);  // Set a Clock Scale of 1 (count at the full 8MHz)
   
    OCR1A = 0; /* Set initial count state to 0 */
     d46:	10 92 89 00 	sts	0x0089, r1	; 0x800089 <__TEXT_REGION_LENGTH__+0x7e0089>
     d4a:	10 92 88 00 	sts	0x0088, r1	; 0x800088 <__TEXT_REGION_LENGTH__+0x7e0088>
   
    /* Setup Timer 0 () */
    TCCR0A |= _BV(CS00); //
     d4e:	84 b5       	in	r24, 0x24	; 36
     d50:	81 60       	ori	r24, 0x01	; 1
     d52:	84 bd       	out	0x24, r24	; 36
    TCNT0=0;
     d54:	16 bc       	out	0x26, r1	; 38
    TIMSK0|=_BV(TOIE0);
     d56:	ee e6       	ldi	r30, 0x6E	; 110
     d58:	f0 e0       	ldi	r31, 0x00	; 0
     d5a:	80 81       	ld	r24, Z
     d5c:	81 60       	ori	r24, 0x01	; 1
     d5e:	80 83       	st	Z, r24

    sampleRepeatCount = SAMPLE_REPEAT;
     d60:	84 e0       	ldi	r24, 0x04	; 4
     d62:	90 e0       	ldi	r25, 0x00	; 0
     d64:	90 93 47 02 	sts	0x0247, r25	; 0x800247 <sampleRepeatCount+0x1>
     d68:	80 93 46 02 	sts	0x0246, r24	; 0x800246 <sampleRepeatCount>

    sei(); //Enable interrupts
     d6c:	78 94       	sei
     d6e:	08 95       	ret

00000d70 <__vector_16>:
}

ISR(TIMER0_OVF_vect) // Callback when we are ready for the next sample
{
     d70:	1f 92       	push	r1
     d72:	0f 92       	push	r0
     d74:	0f b6       	in	r0, 0x3f	; 63
     d76:	0f 92       	push	r0
     d78:	11 24       	eor	r1, r1
     d7a:	2f 93       	push	r18
     d7c:	3f 93       	push	r19
     d7e:	4f 93       	push	r20
     d80:	5f 93       	push	r21
     d82:	6f 93       	push	r22
     d84:	7f 93       	push	r23
     d86:	8f 93       	push	r24
     d88:	9f 93       	push	r25
     d8a:	af 93       	push	r26
     d8c:	bf 93       	push	r27
     d8e:	ef 93       	push	r30
     d90:	ff 93       	push	r31
	sampleRepeatCount--;
     d92:	80 91 46 02 	lds	r24, 0x0246	; 0x800246 <sampleRepeatCount>
     d96:	90 91 47 02 	lds	r25, 0x0247	; 0x800247 <sampleRepeatCount+0x1>
     d9a:	01 97       	sbiw	r24, 0x01	; 1
	if (sampleRepeatCount == 0)
     d9c:	29 f0       	breq	.+10     	; 0xda8 <__vector_16+0x38>
    sei(); //Enable interrupts
}

ISR(TIMER0_OVF_vect) // Callback when we are ready for the next sample
{
	sampleRepeatCount--;
     d9e:	90 93 47 02 	sts	0x0247, r25	; 0x800247 <sampleRepeatCount+0x1>
     da2:	80 93 46 02 	sts	0x0246, r24	; 0x800246 <sampleRepeatCount>
     da6:	28 c0       	rjmp	.+80     	; 0xdf8 <__vector_16+0x88>
	if (sampleRepeatCount == 0)
	{
		sampleRepeatCount = SAMPLE_REPEAT;
     da8:	84 e0       	ldi	r24, 0x04	; 4
     daa:	90 e0       	ldi	r25, 0x00	; 0
     dac:	90 93 47 02 	sts	0x0247, r25	; 0x800247 <sampleRepeatCount+0x1>
     db0:	80 93 46 02 	sts	0x0246, r24	; 0x800246 <sampleRepeatCount>
		bool success = circularBuffer_readByte(_sampleBuffer, &_readSample);
     db4:	68 e4       	ldi	r22, 0x48	; 72
     db6:	72 e0       	ldi	r23, 0x02	; 2
     db8:	80 91 44 02 	lds	r24, 0x0244	; 0x800244 <_sampleBuffer>
     dbc:	90 91 45 02 	lds	r25, 0x0245	; 0x800245 <_sampleBuffer+0x1>
     dc0:	de d0       	rcall	.+444    	; 0xf7e <circularBuffer_readByte>
		OCR1A = success ? _readSample : 0;
     dc2:	88 23       	and	r24, r24
     dc4:	21 f0       	breq	.+8      	; 0xdce <__vector_16+0x5e>
     dc6:	80 91 48 02 	lds	r24, 0x0248	; 0x800248 <_readSample>
     dca:	90 e0       	ldi	r25, 0x00	; 0
     dcc:	02 c0       	rjmp	.+4      	; 0xdd2 <__vector_16+0x62>
     dce:	80 e0       	ldi	r24, 0x00	; 0
     dd0:	90 e0       	ldi	r25, 0x00	; 0
     dd2:	90 93 89 00 	sts	0x0089, r25	; 0x800089 <__TEXT_REGION_LENGTH__+0x7e0089>
     dd6:	80 93 88 00 	sts	0x0088, r24	; 0x800088 <__TEXT_REGION_LENGTH__+0x7e0088>
		if(sample>pcm_length)sample=0;
     dda:	80 91 4b 02 	lds	r24, 0x024B	; 0x80024b <sample>
     dde:	90 91 4c 02 	lds	r25, 0x024C	; 0x80024c <sample+0x1>
     de2:	20 91 49 02 	lds	r18, 0x0249	; 0x800249 <pcm_length>
     de6:	30 91 4a 02 	lds	r19, 0x024A	; 0x80024a <pcm_length+0x1>
     dea:	28 17       	cp	r18, r24
     dec:	39 07       	cpc	r19, r25
     dee:	20 f4       	brcc	.+8      	; 0xdf8 <__vector_16+0x88>
     df0:	10 92 4c 02 	sts	0x024C, r1	; 0x80024c <sample+0x1>
     df4:	10 92 4b 02 	sts	0x024B, r1	; 0x80024b <sample>
	}
}
     df8:	ff 91       	pop	r31
     dfa:	ef 91       	pop	r30
     dfc:	bf 91       	pop	r27
     dfe:	af 91       	pop	r26
     e00:	9f 91       	pop	r25
     e02:	8f 91       	pop	r24
     e04:	7f 91       	pop	r23
     e06:	6f 91       	pop	r22
     e08:	5f 91       	pop	r21
     e0a:	4f 91       	pop	r20
     e0c:	3f 91       	pop	r19
     e0e:	2f 91       	pop	r18
     e10:	0f 90       	pop	r0
     e12:	0f be       	out	0x3f, r0	; 63
     e14:	0f 90       	pop	r0
     e16:	1f 90       	pop	r1
     e18:	18 95       	reti

00000e1a <__vector_18>:
	stdout = &uart_output;
	stdin  = &uart_input;
}

ISR(USART_RX_vect)
{
     e1a:	1f 92       	push	r1
     e1c:	0f 92       	push	r0
     e1e:	0f b6       	in	r0, 0x3f	; 63
     e20:	0f 92       	push	r0
     e22:	11 24       	eor	r1, r1
     e24:	2f 93       	push	r18
     e26:	3f 93       	push	r19
     e28:	4f 93       	push	r20
     e2a:	5f 93       	push	r21
     e2c:	6f 93       	push	r22
     e2e:	7f 93       	push	r23
     e30:	8f 93       	push	r24
     e32:	9f 93       	push	r25
     e34:	af 93       	push	r26
     e36:	bf 93       	push	r27
     e38:	cf 93       	push	r28
     e3a:	ef 93       	push	r30
     e3c:	ff 93       	push	r31
	uint8_t byte = UDR0;
     e3e:	c0 91 c6 00 	lds	r28, 0x00C6	; 0x8000c6 <__TEXT_REGION_LENGTH__+0x7e00c6>
	bool didWrite;
	do 
	{
		didWrite = circularBuffer_writeByte( inBuffer, byte );
     e42:	6c 2f       	mov	r22, r28
     e44:	80 91 4f 02 	lds	r24, 0x024F	; 0x80024f <inBuffer>
     e48:	90 91 50 02 	lds	r25, 0x0250	; 0x800250 <inBuffer+0x1>
     e4c:	bc d0       	rcall	.+376    	; 0xfc6 <circularBuffer_writeByte>
	}
	while (!didWrite);
     e4e:	88 23       	and	r24, r24
     e50:	c1 f3       	breq	.-16     	; 0xe42 <__vector_18+0x28>
}
     e52:	ff 91       	pop	r31
     e54:	ef 91       	pop	r30
     e56:	cf 91       	pop	r28
     e58:	bf 91       	pop	r27
     e5a:	af 91       	pop	r26
     e5c:	9f 91       	pop	r25
     e5e:	8f 91       	pop	r24
     e60:	7f 91       	pop	r23
     e62:	6f 91       	pop	r22
     e64:	5f 91       	pop	r21
     e66:	4f 91       	pop	r20
     e68:	3f 91       	pop	r19
     e6a:	2f 91       	pop	r18
     e6c:	0f 90       	pop	r0
     e6e:	0f be       	out	0x3f, r0	; 63
     e70:	0f 90       	pop	r0
     e72:	1f 90       	pop	r1
     e74:	18 95       	reti

00000e76 <__vector_20>:

ISR(USART_TX_vect) 
{
     e76:	1f 92       	push	r1
     e78:	0f 92       	push	r0
     e7a:	0f b6       	in	r0, 0x3f	; 63
     e7c:	0f 92       	push	r0
     e7e:	11 24       	eor	r1, r1
     e80:	2f 93       	push	r18
     e82:	3f 93       	push	r19
     e84:	4f 93       	push	r20
     e86:	5f 93       	push	r21
     e88:	6f 93       	push	r22
     e8a:	7f 93       	push	r23
     e8c:	8f 93       	push	r24
     e8e:	9f 93       	push	r25
     e90:	af 93       	push	r26
     e92:	bf 93       	push	r27
     e94:	ef 93       	push	r30
     e96:	ff 93       	push	r31
     e98:	cf 93       	push	r28
     e9a:	df 93       	push	r29
     e9c:	1f 92       	push	r1
     e9e:	cd b7       	in	r28, 0x3d	; 61
     ea0:	de b7       	in	r29, 0x3e	; 62
	uint8_t byte;
	bool isDataPending = circularBuffer_readByte( outBuffer, &byte );
     ea2:	be 01       	movw	r22, r28
     ea4:	6f 5f       	subi	r22, 0xFF	; 255
     ea6:	7f 4f       	sbci	r23, 0xFF	; 255
     ea8:	80 91 4d 02 	lds	r24, 0x024D	; 0x80024d <outBuffer>
     eac:	90 91 4e 02 	lds	r25, 0x024E	; 0x80024e <outBuffer+0x1>
     eb0:	66 d0       	rcall	.+204    	; 0xf7e <circularBuffer_readByte>
	if( isDataPending ) // There is data waiting to be sent...
     eb2:	88 23       	and	r24, r24
     eb4:	21 f0       	breq	.+8      	; 0xebe <__vector_20+0x48>
	{
		UDR0 = byte; // ...write it to the UART data register (initiating transmission)
     eb6:	89 81       	ldd	r24, Y+1	; 0x01
     eb8:	80 93 c6 00 	sts	0x00C6, r24	; 0x8000c6 <__TEXT_REGION_LENGTH__+0x7e00c6>
     ebc:	07 c0       	rjmp	.+14     	; 0xecc <__vector_20+0x56>
	}
	else // We've finished transmitting...
	{
		isTransmitting = false;
     ebe:	10 92 3e 02 	sts	0x023E, r1	; 0x80023e <__data_end>
		UCSR0B &= ~_BV(TXCIE0); // ...disable the Transmit Complete interrupt.
     ec2:	e1 ec       	ldi	r30, 0xC1	; 193
     ec4:	f0 e0       	ldi	r31, 0x00	; 0
     ec6:	80 81       	ld	r24, Z
     ec8:	8f 7b       	andi	r24, 0xBF	; 191
     eca:	80 83       	st	Z, r24
	}
}
     ecc:	0f 90       	pop	r0
     ece:	df 91       	pop	r29
     ed0:	cf 91       	pop	r28
     ed2:	ff 91       	pop	r31
     ed4:	ef 91       	pop	r30
     ed6:	bf 91       	pop	r27
     ed8:	af 91       	pop	r26
     eda:	9f 91       	pop	r25
     edc:	8f 91       	pop	r24
     ede:	7f 91       	pop	r23
     ee0:	6f 91       	pop	r22
     ee2:	5f 91       	pop	r21
     ee4:	4f 91       	pop	r20
     ee6:	3f 91       	pop	r19
     ee8:	2f 91       	pop	r18
     eea:	0f 90       	pop	r0
     eec:	0f be       	out	0x3f, r0	; 63
     eee:	0f 90       	pop	r0
     ef0:	1f 90       	pop	r1
     ef2:	18 95       	reti

00000ef4 <sampleBufferOutputFunction>:
		SAMMain();
	}
}

void sampleBufferOutputFunction( unsigned char sample )
{
     ef4:	cf 93       	push	r28
     ef6:	c8 2f       	mov	r28, r24
	while( circularBuffer_isFull( outputSampleBuffer ) );
     ef8:	80 91 51 02 	lds	r24, 0x0251	; 0x800251 <outputSampleBuffer>
     efc:	90 91 52 02 	lds	r25, 0x0252	; 0x800252 <outputSampleBuffer+0x1>
     f00:	3b d0       	rcall	.+118    	; 0xf78 <circularBuffer_isFull>
     f02:	81 11       	cpse	r24, r1
     f04:	f9 cf       	rjmp	.-14     	; 0xef8 <sampleBufferOutputFunction+0x4>
	circularBuffer_writeByte( outputSampleBuffer, sample );
     f06:	6c 2f       	mov	r22, r28
     f08:	80 91 51 02 	lds	r24, 0x0251	; 0x800251 <outputSampleBuffer>
     f0c:	90 91 52 02 	lds	r25, 0x0252	; 0x800252 <outputSampleBuffer+0x1>
     f10:	5a d0       	rcall	.+180    	; 0xfc6 <circularBuffer_writeByte>
     f12:	cf 91       	pop	r28
     f14:	08 95       	ret

00000f16 <main>:
	wdt_disable();
#endif

	// Setup audio output
	{
		outputSampleBuffer = circularBuffer_create(64);
     f16:	80 e4       	ldi	r24, 0x40	; 64
     f18:	90 e0       	ldi	r25, 0x00	; 0
     f1a:	11 d0       	rcall	.+34     	; 0xf3e <circularBuffer_create>
     f1c:	90 93 52 02 	sts	0x0252, r25	; 0x800252 <outputSampleBuffer+0x1>
     f20:	80 93 51 02 	sts	0x0251, r24	; 0x800251 <outputSampleBuffer>
		pwmAudio_init( outputSampleBuffer );
     f24:	04 df       	rcall	.-504    	; 0xd2e <pwmAudio_init>
		samOutputFunction = &sampleBufferOutputFunction;
     f26:	8a e7       	ldi	r24, 0x7A	; 122
     f28:	97 e0       	ldi	r25, 0x07	; 7
     f2a:	90 93 54 02 	sts	0x0254, r25	; 0x800254 <samOutputFunction+0x1>
     f2e:	80 93 53 02 	sts	0x0253, r24	; 0x800253 <samOutputFunction>
	}

	// Set example speech
	{
		char* phonemes = "AY5 AEM EY TAO4LXKIHNX KAX4MPYUX4TAH. GOW4 AH/HEH3D PAHNK.MEYK MAY8 DEY.\x9b\0";
		SetInput(phonemes);
     f32:	8a ea       	ldi	r24, 0xAA	; 170
     f34:	91 e0       	ldi	r25, 0x01	; 1
     f36:	67 d5       	rcall	.+2766   	; 0x1a06 <SetInput>
	}

	while(true)
	{
		SAMMain();
     f38:	0e 94 1c 13 	call	0x2638	; 0x2638 <SAMMain>
	}
     f3c:	fd cf       	rjmp	.-6      	; 0xf38 <main+0x22>

00000f3e <circularBuffer_create>:
 }

 inline bool circularBuffer_isEmpty( CircularBuffer* buffer )
 {
	return (buffer->writeOffset == buffer->readOffset) && !(buffer->isFull);
 }
     f3e:	0f 93       	push	r16
     f40:	1f 93       	push	r17
     f42:	cf 93       	push	r28
     f44:	df 93       	push	r29
     f46:	ec 01       	movw	r28, r24
     f48:	61 e0       	ldi	r22, 0x01	; 1
     f4a:	70 e0       	ldi	r23, 0x00	; 0
     f4c:	0e 94 7a 13 	call	0x26f4	; 0x26f4 <calloc>
     f50:	8c 01       	movw	r16, r24
     f52:	89 e0       	ldi	r24, 0x09	; 9
     f54:	90 e0       	ldi	r25, 0x00	; 0
     f56:	0e 94 94 13 	call	0x2728	; 0x2728 <malloc>
     f5a:	fc 01       	movw	r30, r24
     f5c:	11 83       	std	Z+1, r17	; 0x01
     f5e:	00 83       	st	Z, r16
     f60:	d3 83       	std	Z+3, r29	; 0x03
     f62:	c2 83       	std	Z+2, r28	; 0x02
     f64:	15 82       	std	Z+5, r1	; 0x05
     f66:	14 82       	std	Z+4, r1	; 0x04
     f68:	17 82       	std	Z+7, r1	; 0x07
     f6a:	16 82       	std	Z+6, r1	; 0x06
     f6c:	10 86       	std	Z+8, r1	; 0x08
     f6e:	df 91       	pop	r29
     f70:	cf 91       	pop	r28
     f72:	1f 91       	pop	r17
     f74:	0f 91       	pop	r16
     f76:	08 95       	ret

00000f78 <circularBuffer_isFull>:

 inline bool circularBuffer_isFull( CircularBuffer* buffer )
 {
	return buffer->isFull;
 }
     f78:	fc 01       	movw	r30, r24
     f7a:	80 85       	ldd	r24, Z+8	; 0x08
     f7c:	08 95       	ret

00000f7e <circularBuffer_readByte>:

 bool circularBuffer_readByte( CircularBuffer* buffer, uint8_t* byteOut )
 {
     f7e:	fc 01       	movw	r30, r24
	return buffer;
 }

 inline bool circularBuffer_isEmpty( CircularBuffer* buffer )
 {
	return (buffer->writeOffset == buffer->readOffset) && !(buffer->isFull);
     f80:	26 81       	ldd	r18, Z+6	; 0x06
     f82:	37 81       	ldd	r19, Z+7	; 0x07
     f84:	84 81       	ldd	r24, Z+4	; 0x04
     f86:	95 81       	ldd	r25, Z+5	; 0x05
     f88:	82 17       	cp	r24, r18
     f8a:	93 07       	cpc	r25, r19
     f8c:	49 f4       	brne	.+18     	; 0xfa0 <circularBuffer_readByte+0x22>
     f8e:	80 85       	ldd	r24, Z+8	; 0x08
     f90:	81 11       	cpse	r24, r1
     f92:	06 c0       	rjmp	.+12     	; 0xfa0 <circularBuffer_readByte+0x22>
     f94:	08 95       	ret
 {
	if( circularBuffer_isEmpty( buffer ) ) return false;
	
	*byteOut = (buffer->bytes)[buffer->readOffset];
	++(buffer->readOffset);
	if(buffer->readOffset == buffer->size) buffer->readOffset = 0;
     f96:	17 82       	std	Z+7, r1	; 0x07
     f98:	16 82       	std	Z+6, r1	; 0x06

	buffer->isFull = false;
     f9a:	10 86       	std	Z+8, r1	; 0x08

	return true;
     f9c:	81 e0       	ldi	r24, 0x01	; 1
     f9e:	08 95       	ret

 bool circularBuffer_readByte( CircularBuffer* buffer, uint8_t* byteOut )
 {
	if( circularBuffer_isEmpty( buffer ) ) return false;
	
	*byteOut = (buffer->bytes)[buffer->readOffset];
     fa0:	80 81       	ld	r24, Z
     fa2:	91 81       	ldd	r25, Z+1	; 0x01
     fa4:	dc 01       	movw	r26, r24
     fa6:	a2 0f       	add	r26, r18
     fa8:	b3 1f       	adc	r27, r19
     faa:	8c 91       	ld	r24, X
     fac:	db 01       	movw	r26, r22
     fae:	8c 93       	st	X, r24
	++(buffer->readOffset);
     fb0:	86 81       	ldd	r24, Z+6	; 0x06
     fb2:	97 81       	ldd	r25, Z+7	; 0x07
     fb4:	01 96       	adiw	r24, 0x01	; 1
     fb6:	97 83       	std	Z+7, r25	; 0x07
     fb8:	86 83       	std	Z+6, r24	; 0x06
	if(buffer->readOffset == buffer->size) buffer->readOffset = 0;
     fba:	22 81       	ldd	r18, Z+2	; 0x02
     fbc:	33 81       	ldd	r19, Z+3	; 0x03
     fbe:	82 17       	cp	r24, r18
     fc0:	93 07       	cpc	r25, r19
     fc2:	59 f7       	brne	.-42     	; 0xf9a <circularBuffer_readByte+0x1c>
     fc4:	e8 cf       	rjmp	.-48     	; 0xf96 <circularBuffer_readByte+0x18>

00000fc6 <circularBuffer_writeByte>:

	return true;
 }

 bool circularBuffer_writeByte( CircularBuffer* buffer, uint8_t byte )
 {
     fc6:	fc 01       	movw	r30, r24
	if(buffer->isFull) return false;
     fc8:	80 85       	ldd	r24, Z+8	; 0x08
     fca:	81 11       	cpse	r24, r1
     fcc:	21 c0       	rjmp	.+66     	; 0x1010 <circularBuffer_writeByte+0x4a>

	(buffer->bytes)[buffer->writeOffset] = byte;
     fce:	a0 81       	ld	r26, Z
     fd0:	b1 81       	ldd	r27, Z+1	; 0x01
     fd2:	84 81       	ldd	r24, Z+4	; 0x04
     fd4:	95 81       	ldd	r25, Z+5	; 0x05
     fd6:	a8 0f       	add	r26, r24
     fd8:	b9 1f       	adc	r27, r25
     fda:	6c 93       	st	X, r22
	++(buffer->writeOffset);
     fdc:	84 81       	ldd	r24, Z+4	; 0x04
     fde:	95 81       	ldd	r25, Z+5	; 0x05
     fe0:	01 96       	adiw	r24, 0x01	; 1
     fe2:	95 83       	std	Z+5, r25	; 0x05
     fe4:	84 83       	std	Z+4, r24	; 0x04
	if(buffer->writeOffset == buffer->size) buffer->writeOffset = 0;
     fe6:	22 81       	ldd	r18, Z+2	; 0x02
     fe8:	33 81       	ldd	r19, Z+3	; 0x03
     fea:	82 17       	cp	r24, r18
     fec:	93 07       	cpc	r25, r19
     fee:	11 f4       	brne	.+4      	; 0xff4 <circularBuffer_writeByte+0x2e>
     ff0:	15 82       	std	Z+5, r1	; 0x05
     ff2:	14 82       	std	Z+4, r1	; 0x04

	if(buffer->writeOffset == buffer->readOffset) buffer->isFull = true;
     ff4:	24 81       	ldd	r18, Z+4	; 0x04
     ff6:	35 81       	ldd	r19, Z+5	; 0x05
     ff8:	86 81       	ldd	r24, Z+6	; 0x06
     ffa:	97 81       	ldd	r25, Z+7	; 0x07
     ffc:	28 17       	cp	r18, r24
     ffe:	39 07       	cpc	r19, r25
    1000:	11 f4       	brne	.+4      	; 0x1006 <circularBuffer_writeByte+0x40>
    1002:	81 e0       	ldi	r24, 0x01	; 1
    1004:	80 87       	std	Z+8, r24	; 0x08

	return byte;
    1006:	81 e0       	ldi	r24, 0x01	; 1
    1008:	61 11       	cpse	r22, r1
    100a:	03 c0       	rjmp	.+6      	; 0x1012 <circularBuffer_writeByte+0x4c>
    100c:	80 e0       	ldi	r24, 0x00	; 0
    100e:	08 95       	ret
	return true;
 }

 bool circularBuffer_writeByte( CircularBuffer* buffer, uint8_t byte )
 {
	if(buffer->isFull) return false;
    1010:	80 e0       	ldi	r24, 0x00	; 0
	if(buffer->writeOffset == buffer->size) buffer->writeOffset = 0;

	if(buffer->writeOffset == buffer->readOffset) buffer->isFull = true;

	return byte;
 }
    1012:	08 95       	ret

00001014 <Output>:
	{199, 0,   0,   54,  54 }
};
*/

void Output(int index, unsigned char A)
{
    1014:	86 2f       	mov	r24, r22
	samOutputFunction(A);
    1016:	e0 91 53 02 	lds	r30, 0x0253	; 0x800253 <samOutputFunction>
    101a:	f0 91 54 02 	lds	r31, 0x0254	; 0x800254 <samOutputFunction+0x1>
    101e:	09 95       	icall
    1020:	08 95       	ret

00001022 <Read>:

} Control;

unsigned char Read(Control tablePosition, unsigned char Y)
{
	if(tablePosition==cPitch     ) return pitches   [Y];
    1022:	88 3a       	cpi	r24, 0xA8	; 168
    1024:	31 f4       	brne	.+12     	; 0x1032 <Read+0x10>
    1026:	e6 2f       	mov	r30, r22
    1028:	f0 e0       	ldi	r31, 0x00	; 0
    102a:	eb 5a       	subi	r30, 0xAB	; 171
    102c:	fd 4f       	sbci	r31, 0xFD	; 253
    102e:	80 81       	ld	r24, Z
    1030:	08 95       	ret
	if(tablePosition==cFrequency1) return frequency1[Y];
    1032:	89 3a       	cpi	r24, 0xA9	; 169
    1034:	31 f4       	brne	.+12     	; 0x1042 <Read+0x20>
    1036:	e6 2f       	mov	r30, r22
    1038:	f0 e0       	ldi	r31, 0x00	; 0
    103a:	eb 58       	subi	r30, 0x8B	; 139
    103c:	fc 4f       	sbci	r31, 0xFC	; 252
    103e:	80 81       	ld	r24, Z
    1040:	08 95       	ret
	if(tablePosition==cFrequency2) return frequency2[Y];
    1042:	8a 3a       	cpi	r24, 0xAA	; 170
    1044:	31 f4       	brne	.+12     	; 0x1052 <Read+0x30>
    1046:	e6 2f       	mov	r30, r22
    1048:	f0 e0       	ldi	r31, 0x00	; 0
    104a:	eb 51       	subi	r30, 0x1B	; 27
    104c:	fd 4f       	sbci	r31, 0xFD	; 253
    104e:	80 81       	ld	r24, Z
    1050:	08 95       	ret
	if(tablePosition==cFrequency3) return frequency3[Y];
    1052:	8b 3a       	cpi	r24, 0xAB	; 171
    1054:	31 f4       	brne	.+12     	; 0x1062 <Read+0x40>
    1056:	e6 2f       	mov	r30, r22
    1058:	f0 e0       	ldi	r31, 0x00	; 0
    105a:	eb 55       	subi	r30, 0x5B	; 91
    105c:	fc 4f       	sbci	r31, 0xFC	; 252
    105e:	80 81       	ld	r24, Z
    1060:	08 95       	ret
	if(tablePosition==cAmplitude1) return amplitude1[Y];
    1062:	8c 3a       	cpi	r24, 0xAC	; 172
    1064:	31 f4       	brne	.+12     	; 0x1072 <Read+0x50>
    1066:	e6 2f       	mov	r30, r22
    1068:	f0 e0       	ldi	r31, 0x00	; 0
    106a:	eb 57       	subi	r30, 0x7B	; 123
    106c:	fd 4f       	sbci	r31, 0xFD	; 253
    106e:	80 81       	ld	r24, Z
    1070:	08 95       	ret
	if(tablePosition==cAmplitude2) return amplitude2[Y];
    1072:	8d 3a       	cpi	r24, 0xAD	; 173
    1074:	31 f4       	brne	.+12     	; 0x1082 <Read+0x60>
    1076:	e6 2f       	mov	r30, r22
    1078:	f0 e0       	ldi	r31, 0x00	; 0
    107a:	eb 5e       	subi	r30, 0xEB	; 235
    107c:	fc 4f       	sbci	r31, 0xFC	; 252
    107e:	80 81       	ld	r24, Z
    1080:	08 95       	ret
	if(tablePosition==cAmplitude3) return amplitude3[Y];
    1082:	8e 3a       	cpi	r24, 0xAE	; 174
    1084:	31 f4       	brne	.+12     	; 0x1092 <Read+0x70>
    1086:	e6 2f       	mov	r30, r22
    1088:	f0 e0       	ldi	r31, 0x00	; 0
    108a:	eb 54       	subi	r30, 0x4B	; 75
    108c:	fd 4f       	sbci	r31, 0xFD	; 253
    108e:	80 81       	ld	r24, Z
    1090:	08 95       	ret
	else
	{
		#if DEBUG_LOG
		printf("Error reading from tables");
		#endif
		return 0;
    1092:	80 e0       	ldi	r24, 0x00	; 0
	}
}
    1094:	08 95       	ret

00001096 <Write>:

void Write(Control tablePosition, unsigned char Y, unsigned char value)
{
	if(tablePosition == cPitch     ) { pitches   [Y] = value; }
    1096:	88 3a       	cpi	r24, 0xA8	; 168
    1098:	31 f4       	brne	.+12     	; 0x10a6 <Write+0x10>
    109a:	e6 2f       	mov	r30, r22
    109c:	f0 e0       	ldi	r31, 0x00	; 0
    109e:	eb 5a       	subi	r30, 0xAB	; 171
    10a0:	fd 4f       	sbci	r31, 0xFD	; 253
    10a2:	40 83       	st	Z, r20
    10a4:	10 c0       	rjmp	.+32     	; 0x10c6 <Write+0x30>
	if(tablePosition == cFrequency1) { frequency1[Y] = value; }
    10a6:	89 3a       	cpi	r24, 0xA9	; 169
    10a8:	31 f4       	brne	.+12     	; 0x10b6 <Write+0x20>
    10aa:	e6 2f       	mov	r30, r22
    10ac:	f0 e0       	ldi	r31, 0x00	; 0
    10ae:	eb 58       	subi	r30, 0x8B	; 139
    10b0:	fc 4f       	sbci	r31, 0xFC	; 252
    10b2:	40 83       	st	Z, r20
    10b4:	10 c0       	rjmp	.+32     	; 0x10d6 <Write+0x40>
	if(tablePosition == cFrequency2) { frequency2[Y] = value; }
    10b6:	8a 3a       	cpi	r24, 0xAA	; 170
    10b8:	31 f4       	brne	.+12     	; 0x10c6 <Write+0x30>
    10ba:	e6 2f       	mov	r30, r22
    10bc:	f0 e0       	ldi	r31, 0x00	; 0
    10be:	eb 51       	subi	r30, 0x1B	; 27
    10c0:	fd 4f       	sbci	r31, 0xFD	; 253
    10c2:	40 83       	st	Z, r20
    10c4:	10 c0       	rjmp	.+32     	; 0x10e6 <Write+0x50>
	if(tablePosition == cFrequency3) { frequency3[Y] = value; }
    10c6:	8b 3a       	cpi	r24, 0xAB	; 171
    10c8:	31 f4       	brne	.+12     	; 0x10d6 <Write+0x40>
    10ca:	e6 2f       	mov	r30, r22
    10cc:	f0 e0       	ldi	r31, 0x00	; 0
    10ce:	eb 55       	subi	r30, 0x5B	; 91
    10d0:	fc 4f       	sbci	r31, 0xFC	; 252
    10d2:	40 83       	st	Z, r20
    10d4:	10 c0       	rjmp	.+32     	; 0x10f6 <Write+0x60>
	if(tablePosition == cAmplitude1) { amplitude1[Y] = value; }
    10d6:	8c 3a       	cpi	r24, 0xAC	; 172
    10d8:	31 f4       	brne	.+12     	; 0x10e6 <Write+0x50>
    10da:	e6 2f       	mov	r30, r22
    10dc:	f0 e0       	ldi	r31, 0x00	; 0
    10de:	eb 57       	subi	r30, 0x7B	; 123
    10e0:	fd 4f       	sbci	r31, 0xFD	; 253
    10e2:	40 83       	st	Z, r20
    10e4:	08 95       	ret
	if(tablePosition == cAmplitude2) { amplitude2[Y] = value; }
    10e6:	8d 3a       	cpi	r24, 0xAD	; 173
    10e8:	31 f4       	brne	.+12     	; 0x10f6 <Write+0x60>
    10ea:	e6 2f       	mov	r30, r22
    10ec:	f0 e0       	ldi	r31, 0x00	; 0
    10ee:	eb 5e       	subi	r30, 0xEB	; 235
    10f0:	fc 4f       	sbci	r31, 0xFC	; 252
    10f2:	40 83       	st	Z, r20
    10f4:	08 95       	ret
	if(tablePosition == cAmplitude3) { amplitude3[Y] = value; }
    10f6:	8e 3a       	cpi	r24, 0xAE	; 174
    10f8:	29 f4       	brne	.+10     	; 0x1104 <Write+0x6e>
    10fa:	e6 2f       	mov	r30, r22
    10fc:	f0 e0       	ldi	r31, 0x00	; 0
    10fe:	eb 54       	subi	r30, 0x4B	; 75
    1100:	fd 4f       	sbci	r31, 0xFD	; 253
    1102:	40 83       	st	Z, r20
    1104:	08 95       	ret

00001106 <RenderSample>:
// For voices samples, samples are interleaved between voiced output.


// Code48227()
void RenderSample(unsigned char *mem66)
{     
    1106:	ef 92       	push	r14
    1108:	ff 92       	push	r15
    110a:	0f 93       	push	r16
    110c:	1f 93       	push	r17
    110e:	cf 93       	push	r28
    1110:	df 93       	push	r29
    1112:	8c 01       	movw	r16, r24
	int tempA;
	// current phoneme's index
	mem49 = Y;
    1114:	20 91 d8 04 	lds	r18, 0x04D8	; 0x8004d8 <Y>
    1118:	20 93 da 05 	sts	0x05DA, r18	; 0x8005da <mem49>

	// mask low three bits and subtract 1 get value to 
	// convert 0 bits on unvoiced samples.
	A = mem39&7;
    111c:	90 91 d5 03 	lds	r25, 0x03D5	; 0x8003d5 <mem39>
    1120:	89 2f       	mov	r24, r25
    1122:	87 70       	andi	r24, 0x07	; 7
	X = A-1;
    1124:	81 50       	subi	r24, 0x01	; 1
    1126:	80 93 93 08 	sts	0x0893, r24	; 0x800893 <X>

    // store the result
	mem56 = X;
    112a:	80 93 55 08 	sts	0x0855, r24	; 0x800855 <mem56>
	// /H                     3          0x17
	// /X                     4          0x17

    // get value from the table

	mem53 = pgm_read_byte(&(tab48426[X]));
    112e:	e8 2f       	mov	r30, r24
    1130:	f0 e0       	ldi	r31, 0x00	; 0
    1132:	ec 5f       	subi	r30, 0xFC	; 252
    1134:	f4 4f       	sbci	r31, 0xF4	; 244
    1136:	e4 91       	lpm	r30, Z
    1138:	e0 93 18 07 	sts	0x0718, r30	; 0x800718 <mem53>
	mem47 = X;      //46016+mem[56]*256
    113c:	80 93 d9 04 	sts	0x04D9, r24	; 0x8004d9 <mem47>
	
	// voiced sample?
	A = mem39 & 248;
    1140:	98 7f       	andi	r25, 0xF8	; 248
	if(A == 0)
    1142:	b1 f4       	brne	.+44     	; 0x1170 <RenderSample+0x6a>
	{
        // voiced phoneme: Z*, ZH, V*, DH
		Y = mem49;
		A = pitches[mem49] >> 4;
    1144:	e2 2f       	mov	r30, r18
    1146:	f0 e0       	ldi	r31, 0x00	; 0
    1148:	eb 5a       	subi	r30, 0xAB	; 171
    114a:	fd 4f       	sbci	r31, 0xFD	; 253
    114c:	f0 80       	ld	r15, Z
    114e:	f6 94       	lsr	r15
    1150:	f6 94       	lsr	r15
    1152:	f6 94       	lsr	r15
    1154:	f6 94       	lsr	r15
    1156:	f0 92 d6 03 	sts	0x03D6, r15	; 0x8003d6 <A>

	pos48315:
	// handle voiced samples here

	// number of samples?
	phase1 = A ^ 255;
    115a:	f0 94       	com	r15

	Y = *mem66;
    115c:	f8 01       	movw	r30, r16
    115e:	80 81       	ld	r24, Z
    1160:	80 93 d8 04 	sts	0x04D8, r24	; 0x8004d8 <Y>
	do
	{
		//pos48321:

        // shift through all 8 bits
		mem56 = 8;
    1164:	68 94       	set
    1166:	ee 24       	eor	r14, r14
    1168:	e3 f8       	bld	r14, 3
				Output(3, X);
			} else
			{
				//timetable 4
				// bit is not set, output a 6
				X=6;
    116a:	d6 e0       	ldi	r29, 0x06	; 6
			tempA = A;
			A = A << 1;
			if ((tempA & 128) != 0)
			{
                // if bit set, output 26
				X = 26;
    116c:	ca e1       	ldi	r28, 0x1A	; 26
    116e:	43 c0       	rjmp	.+134    	; 0x11f6 <RenderSample+0xf0>
		
		// jump to voiced portion
		goto pos48315;
	}
	
	Y = A ^ 255;
    1170:	90 95       	com	r25
    1172:	90 93 d8 04 	sts	0x04D8, r25	; 0x8004d8 <Y>
	pos48274:
         
    // step through the 8 bits in the sample
	mem56 = 8;
    1176:	c8 e0       	ldi	r28, 0x08	; 8
    1178:	c0 93 55 08 	sts	0x0855, r28	; 0x800855 <mem56>
	
	// get the next sample from the table
    // mem47*256 = offset to start of samples
	A = pgm_read_byte(&(sampleTable[mem47*256+Y]));
    117c:	e0 91 d9 04 	lds	r30, 0x04D9	; 0x8004d9 <mem47>
    1180:	f0 e0       	ldi	r31, 0x00	; 0
    1182:	fe 2f       	mov	r31, r30
    1184:	ee 27       	eor	r30, r30
    1186:	80 91 d8 04 	lds	r24, 0x04D8	; 0x8004d8 <Y>
    118a:	e8 0f       	add	r30, r24
    118c:	f1 1d       	adc	r31, r1
    118e:	e8 59       	subi	r30, 0x98	; 152
    1190:	ff 4f       	sbci	r31, 0xFF	; 255
    1192:	e4 91       	lpm	r30, Z
    1194:	e0 93 d6 03 	sts	0x03D6, r30	; 0x8003d6 <A>
	pos48280:

    // left shift to get the high bit
	tempA = A;
    1198:	80 91 d6 03 	lds	r24, 0x03D6	; 0x8003d6 <A>
	A = A << 1;
    119c:	98 2f       	mov	r25, r24
    119e:	99 0f       	add	r25, r25
    11a0:	90 93 d6 03 	sts	0x03D6, r25	; 0x8003d6 <A>
	//48281: BCC 48290
	
	// bit not set?
	if ((tempA & 128) == 0)
    11a4:	88 23       	and	r24, r24
    11a6:	5c f0       	brlt	.+22     	; 0x11be <RenderSample+0xb8>
	{
        // convert the bit to value from table
		X = mem53;
    11a8:	60 91 18 07 	lds	r22, 0x0718	; 0x800718 <mem53>
    11ac:	60 93 93 08 	sts	0x0893, r22	; 0x800893 <X>
		//mem[54296] = X;
        // output the byte
		Output(1, X);
    11b0:	81 e0       	ldi	r24, 0x01	; 1
    11b2:	90 e0       	ldi	r25, 0x00	; 0
    11b4:	2f df       	rcall	.-418    	; 0x1014 <Output>
		// if X != 0, exit loop
		if(X != 0) goto pos48296;
    11b6:	80 91 93 08 	lds	r24, 0x0893	; 0x800893 <X>
    11ba:	81 11       	cpse	r24, r1
    11bc:	04 c0       	rjmp	.+8      	; 0x11c6 <RenderSample+0xc0>
	}
	
	// output a 5 for the on bit
	Output(2, 5);
    11be:	65 e0       	ldi	r22, 0x05	; 5
    11c0:	82 e0       	ldi	r24, 0x02	; 2
    11c2:	90 e0       	ldi	r25, 0x00	; 0
    11c4:	27 df       	rcall	.-434    	; 0x1014 <Output>

	//48295: NOP
pos48296:

	X = 0;
    11c6:	10 92 93 08 	sts	0x0893, r1	; 0x800893 <X>

    // decrement counter
	mem56--;
    11ca:	80 91 55 08 	lds	r24, 0x0855	; 0x800855 <mem56>
    11ce:	81 50       	subi	r24, 0x01	; 1
    11d0:	80 93 55 08 	sts	0x0855, r24	; 0x800855 <mem56>
	
	// if not done, jump to top of loop
	if (mem56 != 0) goto pos48280;
    11d4:	81 11       	cpse	r24, r1
    11d6:	e0 cf       	rjmp	.-64     	; 0x1198 <RenderSample+0x92>
	
	// increment position
	Y++;
    11d8:	80 91 d8 04 	lds	r24, 0x04D8	; 0x8004d8 <Y>
    11dc:	8f 5f       	subi	r24, 0xFF	; 255
    11de:	80 93 d8 04 	sts	0x04D8, r24	; 0x8004d8 <Y>
	if (Y != 0) goto pos48274;
    11e2:	81 11       	cpse	r24, r1
    11e4:	c9 cf       	rjmp	.-110    	; 0x1178 <RenderSample+0x72>
	
	// restore values and return
	mem44 = 1;
    11e6:	81 e0       	ldi	r24, 0x01	; 1
    11e8:	80 93 d7 03 	sts	0x03D7, r24	; 0x8003d7 <mem44>
	Y = mem49;
    11ec:	80 91 da 05 	lds	r24, 0x05DA	; 0x8005da <mem49>
    11f0:	80 93 d8 04 	sts	0x04D8, r24	; 0x8004d8 <Y>
	return;
    11f4:	3f c0       	rjmp	.+126    	; 0x1274 <RenderSample+0x16e>
	do
	{
		//pos48321:

        // shift through all 8 bits
		mem56 = 8;
    11f6:	e0 92 55 08 	sts	0x0855, r14	; 0x800855 <mem56>
		//A = Read(mem47, Y);
		
		// fetch value from table
		A = sampleTable[mem47*256+Y];
    11fa:	e0 91 d9 04 	lds	r30, 0x04D9	; 0x8004d9 <mem47>
    11fe:	f0 e0       	ldi	r31, 0x00	; 0
    1200:	80 91 d8 04 	lds	r24, 0x04D8	; 0x8004d8 <Y>
    1204:	fe 2f       	mov	r31, r30
    1206:	ee 27       	eor	r30, r30
    1208:	e8 0f       	add	r30, r24
    120a:	f1 1d       	adc	r31, r1
    120c:	e8 59       	subi	r30, 0x98	; 152
    120e:	ff 4f       	sbci	r31, 0xFF	; 255
    1210:	80 81       	ld	r24, Z
    1212:	80 93 d6 03 	sts	0x03D6, r24	; 0x8003d6 <A>
		{
			//48327: ASL A
			//48328: BCC 48337
			
			// left shift and check high bit
			tempA = A;
    1216:	90 91 d6 03 	lds	r25, 0x03D6	; 0x8003d6 <A>
			A = A << 1;
    121a:	29 2f       	mov	r18, r25
    121c:	22 0f       	add	r18, r18
    121e:	20 93 d6 03 	sts	0x03D6, r18	; 0x8003d6 <A>
			if ((tempA & 128) != 0)
    1222:	99 23       	and	r25, r25
    1224:	3c f4       	brge	.+14     	; 0x1234 <RenderSample+0x12e>
			{
                // if bit set, output 26
				X = 26;
    1226:	c0 93 93 08 	sts	0x0893, r28	; 0x800893 <X>
				Output(3, X);
    122a:	6c 2f       	mov	r22, r28
    122c:	83 e0       	ldi	r24, 0x03	; 3
    122e:	90 e0       	ldi	r25, 0x00	; 0
    1230:	f1 de       	rcall	.-542    	; 0x1014 <Output>
    1232:	06 c0       	rjmp	.+12     	; 0x1240 <RenderSample+0x13a>
			} else
			{
				//timetable 4
				// bit is not set, output a 6
				X=6;
    1234:	d0 93 93 08 	sts	0x0893, r29	; 0x800893 <X>
				Output(4, X);
    1238:	6d 2f       	mov	r22, r29
    123a:	84 e0       	ldi	r24, 0x04	; 4
    123c:	90 e0       	ldi	r25, 0x00	; 0
    123e:	ea de       	rcall	.-556    	; 0x1014 <Output>
			}

			mem56--;
    1240:	90 91 55 08 	lds	r25, 0x0855	; 0x800855 <mem56>
    1244:	91 50       	subi	r25, 0x01	; 1
    1246:	90 93 55 08 	sts	0x0855, r25	; 0x800855 <mem56>
		} while(mem56 != 0);
    124a:	91 11       	cpse	r25, r1
    124c:	e4 cf       	rjmp	.-56     	; 0x1216 <RenderSample+0x110>

        // move ahead in the table
		Y++;
    124e:	80 91 d8 04 	lds	r24, 0x04D8	; 0x8004d8 <Y>
    1252:	8f 5f       	subi	r24, 0xFF	; 255
    1254:	80 93 d8 04 	sts	0x04D8, r24	; 0x8004d8 <Y>
		
		// continue until counter done
		phase1++;
    1258:	f3 94       	inc	r15

	} while (phase1 != 0);
    125a:	f1 10       	cpse	r15, r1
    125c:	cc cf       	rjmp	.-104    	; 0x11f6 <RenderSample+0xf0>
	//	if (phase1 != 0) goto pos48321;
	
	// restore values and return
	A = 1;
    125e:	91 e0       	ldi	r25, 0x01	; 1
    1260:	90 93 d6 03 	sts	0x03D6, r25	; 0x8003d6 <A>
	mem44 = 1;
    1264:	90 93 d7 03 	sts	0x03D7, r25	; 0x8003d7 <mem44>
	*mem66 = Y;
    1268:	f8 01       	movw	r30, r16
    126a:	80 83       	st	Z, r24
	Y = mem49;
    126c:	80 91 da 05 	lds	r24, 0x05DA	; 0x8005da <mem49>
    1270:	80 93 d8 04 	sts	0x04D8, r24	; 0x8004d8 <Y>
	return;
}
    1274:	df 91       	pop	r29
    1276:	cf 91       	pop	r28
    1278:	1f 91       	pop	r17
    127a:	0f 91       	pop	r16
    127c:	ff 90       	pop	r15
    127e:	ef 90       	pop	r14
    1280:	08 95       	ret

00001282 <AddInflection>:
	//pos48372:
	//	mem48 = 255;
//pos48376:
           
    // store the location of the punctuation
	mem49 = X;
    1282:	30 91 93 08 	lds	r19, 0x0893	; 0x800893 <X>
    1286:	30 93 da 05 	sts	0x05DA, r19	; 0x8005da <mem49>
	A = X;
	int Atemp = A;
    128a:	43 2f       	mov	r20, r19
    128c:	50 e0       	ldi	r21, 0x00	; 0
	
	// backup 30 frames
	A = A - 30; 
	// if index is before buffer, point to start of buffer
	if (Atemp <= 30) A=0;
    128e:	4f 31       	cpi	r20, 0x1F	; 31
    1290:	51 05       	cpc	r21, r1
    1292:	2c f0       	brlt	.+10     	; 0x129e <AddInflection+0x1c>
	mem49 = X;
	A = X;
	int Atemp = A;
	
	// backup 30 frames
	A = A - 30; 
    1294:	92 ee       	ldi	r25, 0xE2	; 226
    1296:	93 0f       	add	r25, r19
    1298:	90 93 d6 03 	sts	0x03D6, r25	; 0x8003d6 <A>
    129c:	02 c0       	rjmp	.+4      	; 0x12a2 <AddInflection+0x20>
	// if index is before buffer, point to start of buffer
	if (Atemp <= 30) A=0;
    129e:	10 92 d6 03 	sts	0x03D6, r1	; 0x8003d6 <A>
	X = A;
    12a2:	90 91 d6 03 	lds	r25, 0x03D6	; 0x8003d6 <A>
    12a6:	90 93 93 08 	sts	0x0893, r25	; 0x800893 <X>

	// FIXME: Explain this fix better, it's not obvious
	// ML : A =, fixes a problem with invalid pitch with '.'
	while( (A=pitches[X]) == 127) X++;
    12aa:	e9 2f       	mov	r30, r25
    12ac:	f0 e0       	ldi	r31, 0x00	; 0
    12ae:	eb 5a       	subi	r30, 0xAB	; 171
    12b0:	fd 4f       	sbci	r31, 0xFD	; 253
    12b2:	20 81       	ld	r18, Z
    12b4:	20 93 d6 03 	sts	0x03D6, r18	; 0x8003d6 <A>
    12b8:	2f 37       	cpi	r18, 0x7F	; 127
    12ba:	81 f4       	brne	.+32     	; 0x12dc <AddInflection+0x5a>
    12bc:	9f 5f       	subi	r25, 0xFF	; 255
    12be:	01 c0       	rjmp	.+2      	; 0x12c2 <AddInflection+0x40>
    12c0:	94 2f       	mov	r25, r20
    12c2:	e9 2f       	mov	r30, r25
    12c4:	f0 e0       	ldi	r31, 0x00	; 0
    12c6:	eb 5a       	subi	r30, 0xAB	; 171
    12c8:	fd 4f       	sbci	r31, 0xFD	; 253
    12ca:	20 81       	ld	r18, Z
    12cc:	41 e0       	ldi	r20, 0x01	; 1
    12ce:	49 0f       	add	r20, r25
    12d0:	2f 37       	cpi	r18, 0x7F	; 127
    12d2:	b1 f3       	breq	.-20     	; 0x12c0 <AddInflection+0x3e>
    12d4:	90 93 93 08 	sts	0x0893, r25	; 0x800893 <X>
    12d8:	20 93 d6 03 	sts	0x03D6, r18	; 0x8003d6 <A>
    12dc:	90 91 93 08 	lds	r25, 0x0893	; 0x800893 <X>
    12e0:	40 91 d6 03 	lds	r20, 0x03D6	; 0x8003d6 <A>
    12e4:	48 0f       	add	r20, r24
	// add the inflection direction
	A += mem48;
	phase1 = A;
	
	// set the inflection
	pitches[X] = A;
    12e6:	e9 2f       	mov	r30, r25
    12e8:	f0 e0       	ldi	r31, 0x00	; 0
    12ea:	eb 5a       	subi	r30, 0xAB	; 171
    12ec:	fd 4f       	sbci	r31, 0xFD	; 253
    12ee:	40 83       	st	Z, r20
pos48406:
         
    // increment the position
	X++;
    12f0:	9f 5f       	subi	r25, 0xFF	; 255
	
	// exit if the punctuation has been reached
	if (X == mem49) return; //goto pos47615;
    12f2:	39 17       	cp	r19, r25
    12f4:	49 f0       	breq	.+18     	; 0x1308 <AddInflection+0x86>
	if (pitches[X] == 255) goto pos48406;
    12f6:	e9 2f       	mov	r30, r25
    12f8:	f0 e0       	ldi	r31, 0x00	; 0
    12fa:	eb 5a       	subi	r30, 0xAB	; 171
    12fc:	fd 4f       	sbci	r31, 0xFD	; 253
    12fe:	20 81       	ld	r18, Z
    1300:	2f 3f       	cpi	r18, 0xFF	; 255
    1302:	b1 f3       	breq	.-20     	; 0x12f0 <AddInflection+0x6e>
    1304:	48 0f       	add	r20, r24
    1306:	ef cf       	rjmp	.-34     	; 0x12e6 <AddInflection+0x64>
    1308:	90 93 93 08 	sts	0x0893, r25	; 0x800893 <X>
    130c:	40 93 d6 03 	sts	0x03D6, r20	; 0x8003d6 <A>
    1310:	08 95       	ret

00001312 <Render>:



//void Code47574()
void Render()
{
    1312:	af 92       	push	r10
    1314:	bf 92       	push	r11
    1316:	cf 92       	push	r12
    1318:	df 92       	push	r13
    131a:	ef 92       	push	r14
    131c:	ff 92       	push	r15
    131e:	0f 93       	push	r16
    1320:	1f 93       	push	r17
    1322:	cf 93       	push	r28
    1324:	df 93       	push	r29
    1326:	1f 92       	push	r1
    1328:	cd b7       	in	r28, 0x3d	; 61
    132a:	de b7       	in	r29, 0x3e	; 62
	unsigned char mem40;
	unsigned char speedcounter; //mem45
	unsigned char mem48;
	int i;
	int carry;
	if (phonemeIndexOutput[0] == 255) return; //exit if no data
    132c:	80 91 19 08 	lds	r24, 0x0819	; 0x800819 <phonemeIndexOutput>
    1330:	8f 3f       	cpi	r24, 0xFF	; 255
    1332:	09 f4       	brne	.+2      	; 0x1336 <Render+0x24>
    1334:	72 c2       	rjmp	.+1252   	; 0x181a <Render+0x508>

	A = 0;
	X = 0;
    1336:	10 92 93 08 	sts	0x0893, r1	; 0x800893 <X>
	mem44 = 0;
    133a:	10 92 d7 03 	sts	0x03D7, r1	; 0x8003d7 <mem44>


//void Code47574()
void Render()
{
	unsigned char phase1 = 0;  //mem43
    133e:	10 e0       	ldi	r17, 0x00	; 0
	
	// period phoneme *.
	if (A == 1)
	{
       // add rising inflection
		A = 1;
    1340:	01 e0       	ldi	r16, 0x01	; 1

// pos47587:
do
{
    // get the index
	Y = mem44;
    1342:	e0 91 d7 03 	lds	r30, 0x03D7	; 0x8003d7 <mem44>
    1346:	e0 93 d8 04 	sts	0x04D8, r30	; 0x8004d8 <Y>
	// get the phoneme at the index
	A = phonemeIndexOutput[mem44];
    134a:	f0 e0       	ldi	r31, 0x00	; 0
    134c:	e7 5e       	subi	r30, 0xE7	; 231
    134e:	f7 4f       	sbci	r31, 0xF7	; 247
    1350:	80 81       	ld	r24, Z
    1352:	80 93 d6 03 	sts	0x03D6, r24	; 0x8003d6 <A>
	mem56 = A;
    1356:	80 93 55 08 	sts	0x0855, r24	; 0x800855 <mem56>
	
	// if terminal phoneme, exit the loop
	if (A == 255) break;
    135a:	8f 3f       	cpi	r24, 0xFF	; 255
    135c:	09 f4       	brne	.+2      	; 0x1360 <Render+0x4e>
    135e:	70 c0       	rjmp	.+224    	; 0x1440 <Render+0x12e>
	
	// period phoneme *.
	if (A == 1)
    1360:	81 30       	cpi	r24, 0x01	; 1
    1362:	29 f4       	brne	.+10     	; 0x136e <Render+0x5c>
	{
       // add rising inflection
		A = 1;
    1364:	00 93 d6 03 	sts	0x03D6, r16	; 0x8003d6 <A>
		mem48 = 1;
		//goto pos48376;
		AddInflection(mem48, phase1);
    1368:	61 2f       	mov	r22, r17
    136a:	80 2f       	mov	r24, r16
    136c:	8a df       	rcall	.-236    	; 0x1282 <AddInflection>
	/*
	if (A == 2) goto pos48372;
	*/
	
	// question mark phoneme?
	if (A == 2)
    136e:	80 91 d6 03 	lds	r24, 0x03D6	; 0x8003d6 <A>
    1372:	82 30       	cpi	r24, 0x02	; 2
    1374:	19 f4       	brne	.+6      	; 0x137c <Render+0x6a>
	{
        // create falling inflection
		mem48 = 255;
		AddInflection(mem48, phase1);
    1376:	61 2f       	mov	r22, r17
    1378:	8f ef       	ldi	r24, 0xFF	; 255
    137a:	83 df       	rcall	.-250    	; 0x1282 <AddInflection>
	}
	//	pos47615:

    // get the stress amount (more stress = higher pitch)
	phase1 = tab47492[stressOutput[Y] + 1];
    137c:	80 91 d8 04 	lds	r24, 0x04D8	; 0x8004d8 <Y>
    1380:	90 e0       	ldi	r25, 0x00	; 0
    1382:	fc 01       	movw	r30, r24
    1384:	e5 52       	subi	r30, 0x25	; 37
    1386:	fa 4f       	sbci	r31, 0xFA	; 250
    1388:	e0 81       	ld	r30, Z
    138a:	f0 e0       	ldi	r31, 0x00	; 0
    138c:	e7 50       	subi	r30, 0x07	; 7
    138e:	f5 4f       	sbci	r31, 0xF5	; 245
    1390:	11 81       	ldd	r17, Z+1	; 0x01
	
    // get number of frames to write
	phase2 = phonemeLengthOutput[Y];
    1392:	fc 01       	movw	r30, r24
    1394:	ea 5a       	subi	r30, 0xAA	; 170
    1396:	f7 4f       	sbci	r31, 0xF7	; 247
    1398:	80 81       	ld	r24, Z
	Y = mem56;
    139a:	20 91 55 08 	lds	r18, 0x0855	; 0x800855 <mem56>
	
	// copy from the source to the frames list
	do
	{
		frequency1[X] = freq1data[Y];     // F1 frequency
    139e:	30 e0       	ldi	r19, 0x00	; 0
    13a0:	f9 01       	movw	r30, r18
    13a2:	ea 5a       	subi	r30, 0xAA	; 170
    13a4:	fe 4f       	sbci	r31, 0xFE	; 254
    13a6:	e0 80       	ld	r14, Z
    13a8:	90 91 93 08 	lds	r25, 0x0893	; 0x800893 <X>
		frequency2[X] = freq2data[Y];     // F2 frequency
    13ac:	f9 01       	movw	r30, r18
    13ae:	ea 5f       	subi	r30, 0xFA	; 250
    13b0:	fe 4f       	sbci	r31, 0xFE	; 254
    13b2:	f0 80       	ld	r15, Z
		frequency3[X] = freq3data[Y];     // F3 frequency
    13b4:	f9 01       	movw	r30, r18
    13b6:	e8 5a       	subi	r30, 0xA8	; 168
    13b8:	f6 4f       	sbci	r31, 0xF6	; 246
    13ba:	b0 81       	ld	r27, Z
		amplitude1[X] = ampl1data[Y];     // F1 amplitude
    13bc:	f9 01       	movw	r30, r18
    13be:	e8 5f       	subi	r30, 0xF8	; 248
    13c0:	f6 4f       	sbci	r31, 0xF6	; 246
    13c2:	a0 81       	ld	r26, Z
		amplitude2[X] = ampl2data[Y];     // F2 amplitude
    13c4:	f9 01       	movw	r30, r18
    13c6:	e8 54       	subi	r30, 0x48	; 72
    13c8:	f7 4f       	sbci	r31, 0xF7	; 247
    13ca:	70 81       	ld	r23, Z
		amplitude3[X] = ampl3data[Y];     // F3 amplitude
    13cc:	f9 01       	movw	r30, r18
    13ce:	e8 59       	subi	r30, 0x98	; 152
    13d0:	f7 4f       	sbci	r31, 0xF7	; 247
    13d2:	60 81       	ld	r22, Z
		sampledConsonantFlag[X] = sampledConsonantFlags[Y];        // phoneme data for sampled consonants
    13d4:	f9 01       	movw	r30, r18
    13d6:	e8 55       	subi	r30, 0x58	; 88
    13d8:	f6 4f       	sbci	r31, 0xF6	; 246
    13da:	50 81       	ld	r21, Z
		pitches[X] = pitch + phase1;      // pitch
    13dc:	40 91 a8 01 	lds	r20, 0x01A8	; 0x8001a8 <pitch>
    13e0:	41 0f       	add	r20, r17
    13e2:	89 0f       	add	r24, r25
	Y = mem56;
	
	// copy from the source to the frames list
	do
	{
		frequency1[X] = freq1data[Y];     // F1 frequency
    13e4:	29 2f       	mov	r18, r25
    13e6:	30 e0       	ldi	r19, 0x00	; 0
    13e8:	f9 01       	movw	r30, r18
    13ea:	eb 58       	subi	r30, 0x8B	; 139
    13ec:	fc 4f       	sbci	r31, 0xFC	; 252
    13ee:	e0 82       	st	Z, r14
		frequency2[X] = freq2data[Y];     // F2 frequency
    13f0:	f9 01       	movw	r30, r18
    13f2:	eb 51       	subi	r30, 0x1B	; 27
    13f4:	fd 4f       	sbci	r31, 0xFD	; 253
    13f6:	f0 82       	st	Z, r15
		frequency3[X] = freq3data[Y];     // F3 frequency
    13f8:	f9 01       	movw	r30, r18
    13fa:	eb 55       	subi	r30, 0x5B	; 91
    13fc:	fc 4f       	sbci	r31, 0xFC	; 252
    13fe:	b0 83       	st	Z, r27
		amplitude1[X] = ampl1data[Y];     // F1 amplitude
    1400:	f9 01       	movw	r30, r18
    1402:	eb 57       	subi	r30, 0x7B	; 123
    1404:	fd 4f       	sbci	r31, 0xFD	; 253
    1406:	a0 83       	st	Z, r26
		amplitude2[X] = ampl2data[Y];     // F2 amplitude
    1408:	f9 01       	movw	r30, r18
    140a:	eb 5e       	subi	r30, 0xEB	; 235
    140c:	fc 4f       	sbci	r31, 0xFC	; 252
    140e:	70 83       	st	Z, r23
		amplitude3[X] = ampl3data[Y];     // F3 amplitude
    1410:	f9 01       	movw	r30, r18
    1412:	eb 54       	subi	r30, 0x4B	; 75
    1414:	fd 4f       	sbci	r31, 0xFD	; 253
    1416:	60 83       	st	Z, r22
		sampledConsonantFlag[X] = sampledConsonantFlags[Y];        // phoneme data for sampled consonants
    1418:	f9 01       	movw	r30, r18
    141a:	eb 5b       	subi	r30, 0xBB	; 187
    141c:	fc 4f       	sbci	r31, 0xFC	; 252
    141e:	50 83       	st	Z, r21
		pitches[X] = pitch + phase1;      // pitch
    1420:	f9 01       	movw	r30, r18
    1422:	eb 5a       	subi	r30, 0xAB	; 171
    1424:	fd 4f       	sbci	r31, 0xFD	; 253
    1426:	40 83       	st	Z, r20
    1428:	9f 5f       	subi	r25, 0xFF	; 255
		X++;
		phase2--;
	} while(phase2 != 0);
    142a:	98 13       	cpse	r25, r24
    142c:	db cf       	rjmp	.-74     	; 0x13e4 <Render+0xd2>
    142e:	80 93 93 08 	sts	0x0893, r24	; 0x800893 <X>
	mem44++;
    1432:	80 91 d7 03 	lds	r24, 0x03D7	; 0x8003d7 <mem44>
    1436:	8f 5f       	subi	r24, 0xFF	; 255
    1438:	80 93 d7 03 	sts	0x03D7, r24	; 0x8003d7 <mem44>
} while(mem44 != 0);
    143c:	81 11       	cpse	r24, r1
    143e:	81 cf       	rjmp	.-254    	; 0x1342 <Render+0x30>
// S
//   241     2    10     2    65     1    96    59 * <-- OutBlendFrames = 1
//   241     0     6     0    73     0    99    61

	A = 0;
	mem44 = 0;
    1440:	10 92 d7 03 	sts	0x03D7, r1	; 0x8003d7 <mem44>
	mem49 = 0; // mem49 starts at as 0
    1444:	10 92 da 05 	sts	0x05DA, r1	; 0x8005da <mem49>
	X = 0;
	while(1) //while No. 1
	{
 
        // get the current and following phoneme
		Y = phonemeIndexOutput[X];
    1448:	e9 e1       	ldi	r30, 0x19	; 25
    144a:	f8 e0       	ldi	r31, 0x08	; 8
    144c:	80 81       	ld	r24, Z
		A = phonemeIndexOutput[X+1];
    144e:	21 81       	ldd	r18, Z+1	; 0x01
		X++;

		// exit loop at end token
		if (A == 255) break;//goto pos47970;
    1450:	2f 3f       	cpi	r18, 0xFF	; 255
    1452:	09 f4       	brne	.+2      	; 0x1456 <Render+0x144>
    1454:	cb c1       	rjmp	.+918    	; 0x17ec <Render+0x4da>
		mem49 = A; // mem49 now holds length + position
		A = A + phase2; //Maybe Problem because of carry flag

		//47776: ADC 42
		speedcounter = A;
		mem47 = 168;
    1456:	0f 2e       	mov	r0, r31
    1458:	f8 ea       	ldi	r31, 0xA8	; 168
    145a:	df 2e       	mov	r13, r31
    145c:	f0 2d       	mov	r31, r0
		if (A == 255) break;//goto pos47970;


        // get the ranking of each phoneme
		X = A;
		mem56 = blendRank[A];
    145e:	30 e0       	ldi	r19, 0x00	; 0
    1460:	f9 01       	movw	r30, r18
    1462:	e8 56       	subi	r30, 0x68	; 104
    1464:	f5 4f       	sbci	r31, 0xF5	; 245
    1466:	40 81       	ld	r20, Z
    1468:	40 93 55 08 	sts	0x0855, r20	; 0x800855 <mem56>
		A = blendRank[Y];
    146c:	90 e0       	ldi	r25, 0x00	; 0
    146e:	fc 01       	movw	r30, r24
    1470:	e8 56       	subi	r30, 0x68	; 104
    1472:	f5 4f       	sbci	r31, 0xF5	; 245
    1474:	50 81       	ld	r21, Z
		
		// compare the rank - lower rank value is stronger
		if (A == mem56)
    1476:	45 13       	cpse	r20, r21
    1478:	09 c0       	rjmp	.+18     	; 0x148c <Render+0x17a>
		{
            // same rank, so use out blend lengths from each phoneme
			phase1 = outBlendLength[Y];
    147a:	fc 01       	movw	r30, r24
    147c:	e8 5b       	subi	r30, 0xB8	; 184
    147e:	f5 4f       	sbci	r31, 0xF5	; 245
    1480:	40 81       	ld	r20, Z
			phase2 = outBlendLength[X];
    1482:	f9 01       	movw	r30, r18
    1484:	e8 5b       	subi	r30, 0xB8	; 184
    1486:	f5 4f       	sbci	r31, 0xF5	; 245
    1488:	80 81       	ld	r24, Z
    148a:	13 c0       	rjmp	.+38     	; 0x14b2 <Render+0x1a0>
		} else
		if (A < mem56)
    148c:	54 17       	cp	r21, r20
    148e:	48 f4       	brcc	.+18     	; 0x14a2 <Render+0x190>
		{
            // first phoneme is stronger, so us it's blend lengths
			phase1 = pgm_read_byte(&(inBlendLength[X]));
    1490:	f9 01       	movw	r30, r18
    1492:	e8 50       	subi	r30, 0x08	; 8
    1494:	f6 4f       	sbci	r31, 0xF6	; 246
    1496:	44 91       	lpm	r20, Z
			phase2 = pgm_read_byte(&(outBlendLength[X]));
    1498:	f9 01       	movw	r30, r18
    149a:	e8 5b       	subi	r30, 0xB8	; 184
    149c:	f5 4f       	sbci	r31, 0xF5	; 245
    149e:	84 91       	lpm	r24, Z
    14a0:	08 c0       	rjmp	.+16     	; 0x14b2 <Render+0x1a0>
		} else
		{
            // second phoneme is stronger, so use it's blend lengths
            // note the out/in are swapped
			phase1 = pgm_read_byte(&(outBlendLength[Y]));
    14a2:	fc 01       	movw	r30, r24
    14a4:	e8 5b       	subi	r30, 0xB8	; 184
    14a6:	f5 4f       	sbci	r31, 0xF5	; 245
    14a8:	44 91       	lpm	r20, Z
			phase2 = pgm_read_byte(&(inBlendLength[Y]));
    14aa:	fc 01       	movw	r30, r24
    14ac:	e8 50       	subi	r30, 0x08	; 8
    14ae:	f6 4f       	sbci	r31, 0xF6	; 246
    14b0:	84 91       	lpm	r24, Z
		}

		Y = mem44;
    14b2:	e0 91 d7 03 	lds	r30, 0x03D7	; 0x8003d7 <mem44>
    14b6:	e0 93 d8 04 	sts	0x04D8, r30	; 0x8004d8 <Y>
		A = mem49 + phonemeLengthOutput[mem44]; // A is mem49 + length
    14ba:	f0 e0       	ldi	r31, 0x00	; 0
    14bc:	ea 5a       	subi	r30, 0xAA	; 170
    14be:	f7 4f       	sbci	r31, 0xF7	; 247
    14c0:	f0 80       	ld	r15, Z
    14c2:	90 91 da 05 	lds	r25, 0x05DA	; 0x8005da <mem49>
    14c6:	f9 0e       	add	r15, r25
		mem49 = A; // mem49 now holds length + position
    14c8:	f0 92 da 05 	sts	0x05DA, r15	; 0x8005da <mem49>
		A = A + phase2; //Maybe Problem because of carry flag

		//47776: ADC 42
		speedcounter = A;
		mem47 = 168;
    14cc:	d0 92 d9 04 	sts	0x04D9, r13	; 0x8004d9 <mem47>
		phase3 = mem49 - phase1; // what is mem49
		A = phase1 + phase2; // total transition?
    14d0:	e8 2e       	mov	r14, r24
    14d2:	e4 0e       	add	r14, r20
    14d4:	e0 92 d6 03 	sts	0x03D6, r14	; 0x8003d6 <A>
		mem38 = A;
		
		X = A;
		X -= 2;
    14d8:	9e ef       	ldi	r25, 0xFE	; 254
    14da:	9e 0d       	add	r25, r14
    14dc:	90 93 93 08 	sts	0x0893, r25	; 0x800893 <X>
		if ((X & 128) == 0)
    14e0:	99 23       	and	r25, r25
    14e2:	0c f4       	brge	.+2      	; 0x14e6 <Render+0x1d4>
    14e4:	85 c0       	rjmp	.+266    	; 0x15f0 <Render+0x2de>
		A = A + phase2; //Maybe Problem because of carry flag

		//47776: ADC 42
		speedcounter = A;
		mem47 = 168;
		phase3 = mem49 - phase1; // what is mem49
    14e6:	0f 2d       	mov	r16, r15
    14e8:	04 1b       	sub	r16, r20
		}

		Y = mem44;
		A = mem49 + phonemeLengthOutput[mem44]; // A is mem49 + length
		mem49 = A; // mem49 now holds length + position
		A = A + phase2; //Maybe Problem because of carry flag
    14ea:	f8 0e       	add	r15, r24
          // 173  amplitude2
          // 174  amplitude3

			mem40 = mem38;

			if (mem47 == 168)     // pitch
    14ec:	80 91 d9 04 	lds	r24, 0x04D9	; 0x8004d9 <mem47>
    14f0:	88 3a       	cpi	r24, 0xA8	; 168
    14f2:	01 f5       	brne	.+64     	; 0x1534 <Render+0x222>
               // the middle of the current phoneme to the middle of the 
               // next phoneme
                      
				unsigned char mem36, mem37;
				// half the width of the current phoneme
				mem36 = phonemeLengthOutput[mem44] >> 1;
    14f4:	e0 91 d7 03 	lds	r30, 0x03D7	; 0x8003d7 <mem44>
    14f8:	f0 e0       	ldi	r31, 0x00	; 0
    14fa:	ea 5a       	subi	r30, 0xAA	; 170
    14fc:	f7 4f       	sbci	r31, 0xF7	; 247
    14fe:	20 81       	ld	r18, Z
    1500:	26 95       	lsr	r18
				// half the width of the next phoneme
				mem37 = phonemeLengthOutput[mem44+1] >> 1;
    1502:	81 81       	ldd	r24, Z+1	; 0x01
    1504:	98 2f       	mov	r25, r24
    1506:	96 95       	lsr	r25
				// sum the values
				mem40 = mem36 + mem37; // length of both halves
    1508:	c9 2e       	mov	r12, r25
    150a:	c2 0e       	add	r12, r18
				mem37 += mem49; // center of next phoneme
    150c:	80 91 da 05 	lds	r24, 0x05DA	; 0x8005da <mem49>
				mem36 = mem49 - mem36; // center index of current phoneme
    1510:	b8 2e       	mov	r11, r24
    1512:	b2 1a       	sub	r11, r18
				mem36 = phonemeLengthOutput[mem44] >> 1;
				// half the width of the next phoneme
				mem37 = phonemeLengthOutput[mem44+1] >> 1;
				// sum the values
				mem40 = mem36 + mem37; // length of both halves
				mem37 += mem49; // center of next phoneme
    1514:	69 2f       	mov	r22, r25
    1516:	68 0f       	add	r22, r24
				mem36 = mem49 - mem36; // center index of current phoneme
				A = Read(mem47, mem37); // value at center of next phoneme - end interpolation value
    1518:	8d 2d       	mov	r24, r13
    151a:	83 dd       	rcall	.-1274   	; 0x1022 <Read>
    151c:	18 2f       	mov	r17, r24
    151e:	80 93 d6 03 	sts	0x03D6, r24	; 0x8003d6 <A>
				//A = mem[address];
				
				Y = mem36; // start index of interpolation
    1522:	b0 92 d8 04 	sts	0x04D8, r11	; 0x8004d8 <Y>
				mem53 = A - Read(mem47, mem36); // value to center of current phoneme
    1526:	6b 2d       	mov	r22, r11
    1528:	8d 2d       	mov	r24, r13
    152a:	7b dd       	rcall	.-1290   	; 0x1022 <Read>
    152c:	18 1b       	sub	r17, r24
    152e:	10 93 18 07 	sts	0x0718, r17	; 0x800718 <mem53>
    1532:	0f c0       	rjmp	.+30     	; 0x1552 <Render+0x240>
			} else
			{
                // value to interpolate to
				A = Read(mem47, speedcounter);
    1534:	6f 2d       	mov	r22, r15
    1536:	75 dd       	rcall	.-1302   	; 0x1022 <Read>
    1538:	18 2f       	mov	r17, r24
    153a:	80 93 d6 03 	sts	0x03D6, r24	; 0x8003d6 <A>
				// position to start interpolation from
				Y = phase3;
    153e:	00 93 d8 04 	sts	0x04D8, r16	; 0x8004d8 <Y>
				// value to interpolate from
				mem53 = A - Read(mem47, phase3);
    1542:	60 2f       	mov	r22, r16
    1544:	80 91 d9 04 	lds	r24, 0x04D9	; 0x8004d9 <mem47>
    1548:	6c dd       	rcall	.-1320   	; 0x1022 <Read>
    154a:	18 1b       	sub	r17, r24
    154c:	10 93 18 07 	sts	0x0718, r17	; 0x800718 <mem53>
          // 171  frequency3
          // 172  amplitude1
          // 173  amplitude2
          // 174  amplitude3

			mem40 = mem38;
    1550:	ce 2c       	mov	r12, r14
			
			//Code47503(mem40);
			// ML : Code47503 is division with remainder, and mem50 gets the sign
			
			// calculate change per frame
			mem50 = (((char)(mem53) < 0) ? 128 : 0);
    1552:	10 92 17 07 	sts	0x0717, r1	; 0x800717 <mem50>
			mem51 = abs((char)mem53) % mem40;
    1556:	20 91 18 07 	lds	r18, 0x0718	; 0x800718 <mem53>
    155a:	82 2f       	mov	r24, r18
    155c:	90 e0       	ldi	r25, 0x00	; 0
    155e:	6c 2d       	mov	r22, r12
    1560:	70 e0       	ldi	r23, 0x00	; 0
    1562:	0e 94 53 13 	call	0x26a6	; 0x26a6 <__divmodhi4>
    1566:	80 93 92 08 	sts	0x0892, r24	; 0x800892 <mem51>
			mem53 = (unsigned char)((char)(mem53) / mem40);
    156a:	82 2f       	mov	r24, r18
    156c:	6c 2d       	mov	r22, r12
    156e:	0e 94 47 13 	call	0x268e	; 0x268e <__udivmodqi4>
    1572:	80 93 18 07 	sts	0x0718, r24	; 0x800718 <mem53>

            // interpolation range
			X = mem40; // number of frames to interpolate over
    1576:	c0 92 93 08 	sts	0x0893, r12	; 0x800893 <X>
			Y = phase3; // starting frame
    157a:	00 93 d8 04 	sts	0x04D8, r16	; 0x8004d8 <Y>


            // linearly interpolate values

			mem56 = 0;
    157e:	10 92 55 08 	sts	0x0855, r1	; 0x800855 <mem56>
			//47907: CLC
			//pos47908:
			while(1)     //while No. 3
			{
				A = Read(mem47, Y) + mem53; //carry alway cleared
    1582:	10 91 d9 04 	lds	r17, 0x04D9	; 0x8004d9 <mem47>
    1586:	60 91 d8 04 	lds	r22, 0x04D8	; 0x8004d8 <Y>
    158a:	81 2f       	mov	r24, r17
    158c:	4a dd       	rcall	.-1388   	; 0x1022 <Read>
    158e:	40 91 18 07 	lds	r20, 0x0718	; 0x800718 <mem53>
    1592:	48 0f       	add	r20, r24
    1594:	40 93 d6 03 	sts	0x03D6, r20	; 0x8003d6 <A>

				mem48 = A;
				Y++;
    1598:	60 91 d8 04 	lds	r22, 0x04D8	; 0x8004d8 <Y>
    159c:	6f 5f       	subi	r22, 0xFF	; 255
    159e:	60 93 d8 04 	sts	0x04D8, r22	; 0x8004d8 <Y>
				X--;
    15a2:	90 91 93 08 	lds	r25, 0x0893	; 0x800893 <X>
    15a6:	91 50       	subi	r25, 0x01	; 1
    15a8:	90 93 93 08 	sts	0x0893, r25	; 0x800893 <X>
				if(X == 0) break;
    15ac:	99 23       	and	r25, r25
    15ae:	d1 f0       	breq	.+52     	; 0x15e4 <Render+0x2d2>

				mem56 += mem51;
    15b0:	20 91 92 08 	lds	r18, 0x0892	; 0x800892 <mem51>
    15b4:	90 91 55 08 	lds	r25, 0x0855	; 0x800855 <mem56>
    15b8:	92 0f       	add	r25, r18
				if (mem56 >= mem40)  //???
    15ba:	9c 15       	cp	r25, r12
    15bc:	18 f4       	brcc	.+6      	; 0x15c4 <Render+0x2b2>
				mem48 = A;
				Y++;
				X--;
				if(X == 0) break;

				mem56 += mem51;
    15be:	90 93 55 08 	sts	0x0855, r25	; 0x800855 <mem56>
    15c2:	0c c0       	rjmp	.+24     	; 0x15dc <Render+0x2ca>
				if (mem56 >= mem40)  //???
				{
					mem56 -= mem40; //carry? is set
    15c4:	9c 19       	sub	r25, r12
    15c6:	90 93 55 08 	sts	0x0855, r25	; 0x800855 <mem56>
					//if ((mem56 & 128)==0)
					if ((mem50 & 128)==0)
    15ca:	80 91 17 07 	lds	r24, 0x0717	; 0x800717 <mem50>
    15ce:	88 23       	and	r24, r24
    15d0:	24 f0       	brlt	.+8      	; 0x15da <Render+0x2c8>
					{
						//47935: BIT 50
						//47937: BMI 47943
						if(mem48 != 0) mem48++;
    15d2:	44 23       	and	r20, r20
    15d4:	19 f0       	breq	.+6      	; 0x15dc <Render+0x2ca>
    15d6:	4f 5f       	subi	r20, 0xFF	; 255
    15d8:	01 c0       	rjmp	.+2      	; 0x15dc <Render+0x2ca>
					} else mem48--;
    15da:	41 50       	subi	r20, 0x01	; 1
				}
				//pos47945:
				Write(mem47, Y, mem48);
    15dc:	80 91 d9 04 	lds	r24, 0x04D9	; 0x8004d9 <mem47>
    15e0:	5a dd       	rcall	.-1356   	; 0x1096 <Write>
			} //while No. 3
    15e2:	cf cf       	rjmp	.-98     	; 0x1582 <Render+0x270>

			//pos47952:
			mem47++;
    15e4:	1f 5f       	subi	r17, 0xFF	; 255
    15e6:	10 93 d9 04 	sts	0x04D9, r17	; 0x8004d9 <mem47>
			//if (mem47 != 175) goto pos47810;
		} while (mem47 != 175);     //while No. 2
    15ea:	1f 3a       	cpi	r17, 0xAF	; 175
    15ec:	09 f0       	breq	.+2      	; 0x15f0 <Render+0x2de>
    15ee:	7e cf       	rjmp	.-260    	; 0x14ec <Render+0x1da>
		//pos47963:
		mem44++;
    15f0:	e0 91 d7 03 	lds	r30, 0x03D7	; 0x8003d7 <mem44>
    15f4:	ef 5f       	subi	r30, 0xFF	; 255
    15f6:	e0 93 d7 03 	sts	0x03D7, r30	; 0x8003d7 <mem44>
	X = 0;
	while(1) //while No. 1
	{
 
        // get the current and following phoneme
		Y = phonemeIndexOutput[X];
    15fa:	f0 e0       	ldi	r31, 0x00	; 0
    15fc:	e7 5e       	subi	r30, 0xE7	; 231
    15fe:	f7 4f       	sbci	r31, 0xF7	; 247
    1600:	80 81       	ld	r24, Z
		A = phonemeIndexOutput[X+1];
    1602:	21 81       	ldd	r18, Z+1	; 0x01
		X++;

		// exit loop at end token
		if (A == 255) break;//goto pos47970;
    1604:	2f 3f       	cpi	r18, 0xFF	; 255
    1606:	09 f0       	breq	.+2      	; 0x160a <Render+0x2f8>
    1608:	2a cf       	rjmp	.-428    	; 0x145e <Render+0x14c>
    160a:	f0 c0       	rjmp	.+480    	; 0x17ec <Render+0x4da>
	{
        // iterate through the buffer
		for(i=0; i<MAX_LEN; i++) {
            // subtract half the frequency of the formant 1.
            // this adds variety to the voice
    		pitches[i] -= (frequency1[i] >> 1);
    160c:	9d 91       	ld	r25, X+
    160e:	96 95       	lsr	r25
    1610:	80 81       	ld	r24, Z
    1612:	89 1b       	sub	r24, r25
    1614:	81 93       	st	Z+, r24
	
	// don't adjust pitch if in sing mode
	if (!singmode)
	{
        // iterate through the buffer
		for(i=0; i<MAX_LEN; i++) {
    1616:	e2 17       	cp	r30, r18
    1618:	f3 07       	cpc	r31, r19
    161a:	c1 f7       	brne	.-16     	; 0x160c <Render+0x2fa>
	}

	phase1 = 0;
	phase2 = 0;
	phase3 = 0;
	mem49 = 0;
    161c:	10 92 da 05 	sts	0x05DA, r1	; 0x8005da <mem49>
    1620:	24 e8       	ldi	r18, 0x84	; 132
    1622:	33 e0       	ldi	r19, 0x03	; 3
    1624:	84 e1       	ldi	r24, 0x14	; 20
    1626:	94 e0       	ldi	r25, 0x04	; 4
    1628:	a4 eb       	ldi	r26, 0xB4	; 180
    162a:	b3 e0       	ldi	r27, 0x03	; 3
//
// Rescale volume from a linear scale to decibels.
//

	//amplitude rescaling
	for(i=255; i>=0; i--)
    162c:	4f ef       	ldi	r20, 0xFF	; 255
    162e:	50 e0       	ldi	r21, 0x00	; 0
	{
		amplitude1[i] = amplitudeRescale[amplitude1[i]];
    1630:	f9 01       	movw	r30, r18
    1632:	60 81       	ld	r22, Z
    1634:	e6 2f       	mov	r30, r22
    1636:	f0 e0       	ldi	r31, 0x00	; 0
    1638:	e8 51       	subi	r30, 0x18	; 24
    163a:	f5 4f       	sbci	r31, 0xF5	; 245
    163c:	60 81       	ld	r22, Z
    163e:	f9 01       	movw	r30, r18
    1640:	60 83       	st	Z, r22
		amplitude2[i] = amplitudeRescale[amplitude2[i]];
    1642:	fc 01       	movw	r30, r24
    1644:	60 81       	ld	r22, Z
    1646:	e6 2f       	mov	r30, r22
    1648:	f0 e0       	ldi	r31, 0x00	; 0
    164a:	e8 51       	subi	r30, 0x18	; 24
    164c:	f5 4f       	sbci	r31, 0xF5	; 245
    164e:	60 81       	ld	r22, Z
    1650:	fc 01       	movw	r30, r24
    1652:	60 83       	st	Z, r22
		amplitude3[i] = amplitudeRescale[amplitude3[i]];
    1654:	ec 91       	ld	r30, X
    1656:	f0 e0       	ldi	r31, 0x00	; 0
    1658:	e8 51       	subi	r30, 0x18	; 24
    165a:	f5 4f       	sbci	r31, 0xF5	; 245
    165c:	60 81       	ld	r22, Z
    165e:	6c 93       	st	X, r22
//
// Rescale volume from a linear scale to decibels.
//

	//amplitude rescaling
	for(i=255; i>=0; i--)
    1660:	41 50       	subi	r20, 0x01	; 1
    1662:	51 09       	sbc	r21, r1
    1664:	21 50       	subi	r18, 0x01	; 1
    1666:	31 09       	sbc	r19, r1
    1668:	01 97       	sbiw	r24, 0x01	; 1
    166a:	11 97       	sbiw	r26, 0x01	; 1
    166c:	4f 3f       	cpi	r20, 0xFF	; 255
    166e:	ff ef       	ldi	r31, 0xFF	; 255
    1670:	5f 07       	cpc	r21, r31
    1672:	f1 f6       	brne	.-68     	; 0x1630 <Render+0x31e>
		amplitude1[i] = amplitudeRescale[amplitude1[i]];
		amplitude2[i] = amplitudeRescale[amplitude2[i]];
		amplitude3[i] = amplitudeRescale[amplitude3[i]];
	}

	Y = 0;
    1674:	10 92 d8 04 	sts	0x04D8, r1	; 0x8004d8 <Y>
	A = pitches[0];
    1678:	00 91 55 02 	lds	r16, 0x0255	; 0x800255 <pitches>
	mem44 = A;
    167c:	00 93 d7 03 	sts	0x03D7, r16	; 0x8003d7 <mem44>
	X = A;
    1680:	00 93 93 08 	sts	0x0893, r16	; 0x800893 <X>
	mem38 = A - (A>>2);     // 3/4*A ???
    1684:	80 2f       	mov	r24, r16
    1686:	86 95       	lsr	r24
    1688:	86 95       	lsr	r24
    168a:	08 1b       	sub	r16, r24

	phase1 = 0;
	phase2 = 0;
	phase3 = 0;
	mem49 = 0;
	speedcounter = 72; //sam standard speed
    168c:	0f 2e       	mov	r0, r31
    168e:	f8 e4       	ldi	r31, 0x48	; 72
    1690:	ff 2e       	mov	r15, r31
    1692:	f0 2d       	mov	r31, r0
        }
	}

	phase1 = 0;
	phase2 = 0;
	phase3 = 0;
    1694:	c1 2c       	mov	r12, r1
    		pitches[i] -= (frequency1[i] >> 1);
        }
	}

	phase1 = 0;
	phase2 = 0;
    1696:	d1 2c       	mov	r13, r1
            // this adds variety to the voice
    		pitches[i] -= (frequency1[i] >> 1);
        }
	}

	phase1 = 0;
    1698:	e1 2c       	mov	r14, r1
		{
            // simulate the glottal pulse and formants
			mem56 = multtable[sinus[phase1] | amplitude1[Y]];

			carry = 0;
			if ((mem56+multtable[sinus[phase2] | amplitude2[Y]] ) > 255) carry = 1;
    169a:	aa 24       	eor	r10, r10
    169c:	a3 94       	inc	r10
    169e:	b1 2c       	mov	r11, r1
	//finally the loop for sound output
	//pos48078:
	while(1)
	{
        // get the sampled information on the phoneme
		A = sampledConsonantFlag[Y];
    16a0:	20 91 d8 04 	lds	r18, 0x04D8	; 0x8004d8 <Y>
    16a4:	30 e0       	ldi	r19, 0x00	; 0
    16a6:	f9 01       	movw	r30, r18
    16a8:	eb 5b       	subi	r30, 0xBB	; 187
    16aa:	fc 4f       	sbci	r31, 0xFC	; 252
    16ac:	80 81       	ld	r24, Z
		mem39 = A;
    16ae:	80 93 d5 03 	sts	0x03D5, r24	; 0x8003d5 <mem39>
		
		// unvoiced sampled phoneme?
		A = A & 248;
    16b2:	88 7f       	andi	r24, 0xF8	; 248
    16b4:	80 93 d6 03 	sts	0x03D6, r24	; 0x8003d6 <A>
		if(A != 0)
    16b8:	88 23       	and	r24, r24
    16ba:	51 f0       	breq	.+20     	; 0x16d0 <Render+0x3be>
		{
            // render the sample for the phoneme
			RenderSample(&mem66);
    16bc:	ce 01       	movw	r24, r28
    16be:	01 96       	adiw	r24, 0x01	; 1
    16c0:	22 dd       	rcall	.-1468   	; 0x1106 <RenderSample>
			
			// skip ahead two in the phoneme buffer
			Y += 2;
    16c2:	80 91 d8 04 	lds	r24, 0x04D8	; 0x8004d8 <Y>
    16c6:	8e 5f       	subi	r24, 0xFE	; 254
    16c8:	80 93 d8 04 	sts	0x04D8, r24	; 0x8004d8 <Y>
			mem48 -= 2;
    16cc:	12 50       	subi	r17, 0x02	; 2
    16ce:	55 c0       	rjmp	.+170    	; 0x177a <Render+0x468>
		} else
		{
            // simulate the glottal pulse and formants
			mem56 = multtable[sinus[phase1] | amplitude1[Y]];
    16d0:	ee 2d       	mov	r30, r14
    16d2:	f0 e0       	ldi	r31, 0x00	; 0
    16d4:	e8 59       	subi	r30, 0x98	; 152
    16d6:	f8 4f       	sbci	r31, 0xF8	; 248
    16d8:	a0 91 d8 04 	lds	r26, 0x04D8	; 0x8004d8 <Y>
    16dc:	b0 e0       	ldi	r27, 0x00	; 0
    16de:	ab 57       	subi	r26, 0x7B	; 123
    16e0:	bd 4f       	sbci	r27, 0xFD	; 253
    16e2:	e0 81       	ld	r30, Z
    16e4:	8c 91       	ld	r24, X
    16e6:	e8 2b       	or	r30, r24
    16e8:	f0 e0       	ldi	r31, 0x00	; 0
    16ea:	e8 59       	subi	r30, 0x98	; 152
    16ec:	fa 4f       	sbci	r31, 0xFA	; 250
    16ee:	50 81       	ld	r21, Z

			carry = 0;
			if ((mem56+multtable[sinus[phase2] | amplitude2[Y]] ) > 255) carry = 1;
    16f0:	ed 2d       	mov	r30, r13
    16f2:	f0 e0       	ldi	r31, 0x00	; 0
    16f4:	e8 59       	subi	r30, 0x98	; 152
    16f6:	f8 4f       	sbci	r31, 0xF8	; 248
    16f8:	d9 01       	movw	r26, r18
    16fa:	ab 5e       	subi	r26, 0xEB	; 235
    16fc:	bc 4f       	sbci	r27, 0xFC	; 252
    16fe:	e0 81       	ld	r30, Z
    1700:	8c 91       	ld	r24, X
    1702:	e8 2b       	or	r30, r24
    1704:	f0 e0       	ldi	r31, 0x00	; 0
    1706:	e8 59       	subi	r30, 0x98	; 152
    1708:	fa 4f       	sbci	r31, 0xFA	; 250
    170a:	40 81       	ld	r20, Z
			mem56 += multtable[sinus[phase2] | amplitude2[Y]];
    170c:	64 2f       	mov	r22, r20
    170e:	65 0f       	add	r22, r21
    1710:	60 93 55 08 	sts	0x0855, r22	; 0x800855 <mem56>
			A = mem56 + multtable[rectangle[phase3] | amplitude3[Y]] + (carry?1:0);
    1714:	ec 2d       	mov	r30, r12
    1716:	f0 e0       	ldi	r31, 0x00	; 0
    1718:	e8 59       	subi	r30, 0x98	; 152
    171a:	f9 4f       	sbci	r31, 0xF9	; 249
    171c:	d9 01       	movw	r26, r18
    171e:	ab 54       	subi	r26, 0x4B	; 75
    1720:	bd 4f       	sbci	r27, 0xFD	; 253
    1722:	e0 81       	ld	r30, Z
    1724:	9c 91       	ld	r25, X
    1726:	e9 2b       	or	r30, r25
    1728:	f0 e0       	ldi	r31, 0x00	; 0
    172a:	e8 59       	subi	r30, 0x98	; 152
    172c:	fa 4f       	sbci	r31, 0xFA	; 250
    172e:	80 81       	ld	r24, Z
    1730:	68 0f       	add	r22, r24
		{
            // simulate the glottal pulse and formants
			mem56 = multtable[sinus[phase1] | amplitude1[Y]];

			carry = 0;
			if ((mem56+multtable[sinus[phase2] | amplitude2[Y]] ) > 255) carry = 1;
    1732:	24 2f       	mov	r18, r20
    1734:	30 e0       	ldi	r19, 0x00	; 0
    1736:	25 0f       	add	r18, r21
    1738:	31 1d       	adc	r19, r1
    173a:	8a 2d       	mov	r24, r10
    173c:	2f 3f       	cpi	r18, 0xFF	; 255
    173e:	31 05       	cpc	r19, r1
    1740:	09 f0       	breq	.+2      	; 0x1744 <Render+0x432>
    1742:	0c f4       	brge	.+2      	; 0x1746 <Render+0x434>
    1744:	8b 2d       	mov	r24, r11
			mem56 += multtable[sinus[phase2] | amplitude2[Y]];
			A = mem56 + multtable[rectangle[phase3] | amplitude3[Y]] + (carry?1:0);
    1746:	86 0f       	add	r24, r22
			A = ((A + 136) & 255) >> 4; //there must be also a carry
    1748:	88 57       	subi	r24, 0x78	; 120
    174a:	68 2f       	mov	r22, r24
    174c:	70 e0       	ldi	r23, 0x00	; 0
    174e:	75 95       	asr	r23
    1750:	67 95       	ror	r22
    1752:	75 95       	asr	r23
    1754:	67 95       	ror	r22
    1756:	75 95       	asr	r23
    1758:	67 95       	ror	r22
    175a:	75 95       	asr	r23
    175c:	67 95       	ror	r22
    175e:	60 93 d6 03 	sts	0x03D6, r22	; 0x8003d6 <A>
			//mem[54296] = A;
			
			// output the accumulated value
			Output(0, A);
    1762:	80 e0       	ldi	r24, 0x00	; 0
    1764:	90 e0       	ldi	r25, 0x00	; 0
    1766:	56 dc       	rcall	.-1876   	; 0x1014 <Output>
			speedcounter--;
    1768:	fa 94       	dec	r15
			if (speedcounter != 0) goto pos48155;
    176a:	f1 10       	cpse	r15, r1
    176c:	0b c0       	rjmp	.+22     	; 0x1784 <Render+0x472>
			Y++; //go to next amplitude
    176e:	80 91 d8 04 	lds	r24, 0x04D8	; 0x8004d8 <Y>
    1772:	8f 5f       	subi	r24, 0xFF	; 255
    1774:	80 93 d8 04 	sts	0x04D8, r24	; 0x8004d8 <Y>
			
			// decrement the frame count
			mem48--;
    1778:	11 50       	subi	r17, 0x01	; 1
		}
		
		// if the frame count is zero, exit the loop
		if(mem48 == 0) 	return;
    177a:	11 23       	and	r17, r17
    177c:	09 f4       	brne	.+2      	; 0x1780 <Render+0x46e>
    177e:	4d c0       	rjmp	.+154    	; 0x181a <Render+0x508>
		speedcounter = speed;
    1780:	f0 90 a9 01 	lds	r15, 0x01A9	; 0x8001a9 <speed>
pos48155:
         
        // decrement the remaining length of the glottal pulse
		mem44--;
    1784:	80 91 d7 03 	lds	r24, 0x03D7	; 0x8003d7 <mem44>
    1788:	81 50       	subi	r24, 0x01	; 1
    178a:	80 93 d7 03 	sts	0x03D7, r24	; 0x8003d7 <mem44>
		
		// finished with a glottal pulse?
		if(mem44 == 0)
    178e:	81 11       	cpse	r24, r1
    1790:	10 c0       	rjmp	.+32     	; 0x17b2 <Render+0x4a0>
		{
pos48159:
            // fetch the next glottal pulse length
			A = pitches[Y];
    1792:	e0 91 d8 04 	lds	r30, 0x04D8	; 0x8004d8 <Y>
    1796:	f0 e0       	ldi	r31, 0x00	; 0
    1798:	eb 5a       	subi	r30, 0xAB	; 171
    179a:	fd 4f       	sbci	r31, 0xFD	; 253
    179c:	00 81       	ld	r16, Z
			mem44 = A;
    179e:	00 93 d7 03 	sts	0x03D7, r16	; 0x8003d7 <mem44>
			A = A - (A>>2);
    17a2:	80 2f       	mov	r24, r16
    17a4:	86 95       	lsr	r24
    17a6:	86 95       	lsr	r24
    17a8:	08 1b       	sub	r16, r24
			
			// reset the formant wave generators to keep them in 
			// sync with the glottal pulse
			phase1 = 0;
			phase2 = 0;
			phase3 = 0;
    17aa:	cb 2c       	mov	r12, r11
			mem38 = A;
			
			// reset the formant wave generators to keep them in 
			// sync with the glottal pulse
			phase1 = 0;
			phase2 = 0;
    17ac:	db 2c       	mov	r13, r11
			A = A - (A>>2);
			mem38 = A;
			
			// reset the formant wave generators to keep them in 
			// sync with the glottal pulse
			phase1 = 0;
    17ae:	eb 2c       	mov	r14, r11
			phase2 = 0;
			phase3 = 0;
			continue;
    17b0:	77 cf       	rjmp	.-274    	; 0x16a0 <Render+0x38e>
		}
		
		// decrement the count
		mem38--;
    17b2:	01 50       	subi	r16, 0x01	; 1
		
		// is the count non-zero and the sampled flag is zero?
		if((mem38 != 0) || (mem39 == 0))
    17b4:	21 f4       	brne	.+8      	; 0x17be <Render+0x4ac>
    17b6:	80 91 d5 03 	lds	r24, 0x03D5	; 0x8003d5 <mem39>
    17ba:	81 11       	cpse	r24, r1
    17bc:	13 c0       	rjmp	.+38     	; 0x17e4 <Render+0x4d2>
		{
            // reset the phase of the formants to match the pulse
			phase1 += frequency1[Y];
    17be:	80 91 d8 04 	lds	r24, 0x04D8	; 0x8004d8 <Y>
    17c2:	90 e0       	ldi	r25, 0x00	; 0
    17c4:	fc 01       	movw	r30, r24
    17c6:	eb 58       	subi	r30, 0x8B	; 139
    17c8:	fc 4f       	sbci	r31, 0xFC	; 252
    17ca:	20 81       	ld	r18, Z
    17cc:	e2 0e       	add	r14, r18
			phase2 += frequency2[Y];
    17ce:	fc 01       	movw	r30, r24
    17d0:	eb 51       	subi	r30, 0x1B	; 27
    17d2:	fd 4f       	sbci	r31, 0xFD	; 253
    17d4:	20 81       	ld	r18, Z
    17d6:	d2 0e       	add	r13, r18
			phase3 += frequency3[Y];
    17d8:	fc 01       	movw	r30, r24
    17da:	eb 55       	subi	r30, 0x5B	; 91
    17dc:	fc 4f       	sbci	r31, 0xFC	; 252
    17de:	80 81       	ld	r24, Z
    17e0:	c8 0e       	add	r12, r24
			continue;
    17e2:	5e cf       	rjmp	.-324    	; 0x16a0 <Render+0x38e>
		}
		
		// voiced sampled phonemes interleave the sample with the
		// glottal pulse. The sample flag is non-zero, so render
		// the sample for the phoneme.
		RenderSample(&mem66);
    17e4:	ce 01       	movw	r24, r28
    17e6:	01 96       	adiw	r24, 0x01	; 1
    17e8:	8e dc       	rcall	.-1764   	; 0x1106 <RenderSample>
		goto pos48159;
    17ea:	d3 cf       	rjmp	.-90     	; 0x1792 <Render+0x480>

	//goto pos47701;
	//pos47970:

    // add the length of this phoneme
	mem48 = mem49 + phonemeLengthOutput[mem44];
    17ec:	e0 91 d7 03 	lds	r30, 0x03D7	; 0x8003d7 <mem44>
    17f0:	f0 e0       	ldi	r31, 0x00	; 0
    17f2:	ea 5a       	subi	r30, 0xAA	; 170
    17f4:	f7 4f       	sbci	r31, 0xF7	; 247
    17f6:	10 81       	ld	r17, Z
    17f8:	80 91 da 05 	lds	r24, 0x05DA	; 0x8005da <mem49>
    17fc:	18 0f       	add	r17, r24
// pitch contour. Without this, the output would be at a single
// pitch level (monotone).

	
	// don't adjust pitch if in sing mode
	if (!singmode)
    17fe:	80 91 42 02 	lds	r24, 0x0242	; 0x800242 <singmode>
    1802:	90 91 43 02 	lds	r25, 0x0243	; 0x800243 <singmode+0x1>
    1806:	89 2b       	or	r24, r25
    1808:	09 f0       	breq	.+2      	; 0x180c <Render+0x4fa>
    180a:	08 cf       	rjmp	.-496    	; 0x161c <Render+0x30a>
    180c:	a5 e7       	ldi	r26, 0x75	; 117
    180e:	b3 e0       	ldi	r27, 0x03	; 3
    1810:	e5 e5       	ldi	r30, 0x55	; 85
    1812:	f2 e0       	ldi	r31, 0x02	; 2
    1814:	25 e8       	ldi	r18, 0x85	; 133
    1816:	32 e0       	ldi	r19, 0x02	; 2
    1818:	f9 ce       	rjmp	.-526    	; 0x160c <Render+0x2fa>
	A = 1;
	mem44 = 1;
	mem66 = Y;
	Y = mem49;
	return;
}
    181a:	0f 90       	pop	r0
    181c:	df 91       	pop	r29
    181e:	cf 91       	pop	r28
    1820:	1f 91       	pop	r17
    1822:	0f 91       	pop	r16
    1824:	ff 90       	pop	r15
    1826:	ef 90       	pop	r14
    1828:	df 90       	pop	r13
    182a:	cf 90       	pop	r12
    182c:	bf 90       	pop	r11
    182e:	af 90       	pop	r10
    1830:	08 95       	ret

00001832 <trans>:
}


//return = (mem39212*mem39213) >> 1
unsigned char trans(unsigned char mem39212, unsigned char mem39213)
{
    1832:	cf 93       	push	r28
    1834:	38 2f       	mov	r19, r24
    1836:	40 e0       	ldi	r20, 0x00	; 0
	//pos39008:
	unsigned char carry;
	int temp;
	unsigned char mem39214, mem39215;
	A = 0;
    1838:	28 e0       	ldi	r18, 0x08	; 8
	mem39215 = 0;
    183a:	90 e0       	ldi	r25, 0x00	; 0
			A = A + mem39213;
			if (temp > 255) carry = 1;
			mem39215 = A;
		}
		temp = mem39215 & 1;
		mem39215 = (mem39215 >> 1) | (carry?128:0);
    183c:	70 e0       	ldi	r23, 0x00	; 0
						39018: LSR 39212
						39021: BCC 39033
						*/
			carry = 0;
			A = mem39215;
			temp = (int)A + (int)mem39213;
    183e:	a6 2f       	mov	r26, r22
    1840:	b0 e0       	ldi	r27, 0x00	; 0
			A = A + mem39213;
			if (temp > 255) carry = 1;
			mem39215 = A;
		}
		temp = mem39215 & 1;
		mem39215 = (mem39215 >> 1) | (carry?128:0);
    1842:	c0 e8       	ldi	r28, 0x80	; 128
	mem39215 = 0;
	mem39214 = 0;
	X = 8;
	do
	{
		carry = mem39212 & 1;
    1844:	83 2f       	mov	r24, r19
    1846:	81 70       	andi	r24, 0x01	; 1
		mem39212 = mem39212 >> 1;
    1848:	36 95       	lsr	r19
		if (carry != 0)
    184a:	88 23       	and	r24, r24
    184c:	a9 f0       	breq	.+42     	; 0x1878 <trans+0x46>
						39021: BCC 39033
						*/
			carry = 0;
			A = mem39215;
			temp = (int)A + (int)mem39213;
			A = A + mem39213;
    184e:	89 2f       	mov	r24, r25
    1850:	86 0f       	add	r24, r22
			if (temp > 255) carry = 1;
			mem39215 = A;
		}
		temp = mem39215 & 1;
		mem39215 = (mem39215 >> 1) | (carry?128:0);
    1852:	58 2f       	mov	r21, r24
    1854:	56 95       	lsr	r21
						39018: LSR 39212
						39021: BCC 39033
						*/
			carry = 0;
			A = mem39215;
			temp = (int)A + (int)mem39213;
    1856:	fd 01       	movw	r30, r26
    1858:	e9 0f       	add	r30, r25
    185a:	f1 1d       	adc	r31, r1
			A = A + mem39213;
			if (temp > 255) carry = 1;
			mem39215 = A;
		}
		temp = mem39215 & 1;
		mem39215 = (mem39215 >> 1) | (carry?128:0);
    185c:	ef 3f       	cpi	r30, 0xFF	; 255
    185e:	f1 05       	cpc	r31, r1
    1860:	09 f0       	breq	.+2      	; 0x1864 <trans+0x32>
    1862:	1c f4       	brge	.+6      	; 0x186a <trans+0x38>
						39021: BCC 39033
						*/
			carry = 0;
			A = mem39215;
			temp = (int)A + (int)mem39213;
			A = A + mem39213;
    1864:	48 2f       	mov	r20, r24
			if (temp > 255) carry = 1;
			mem39215 = A;
		}
		temp = mem39215 & 1;
		mem39215 = (mem39215 >> 1) | (carry?128:0);
    1866:	87 2f       	mov	r24, r23
    1868:	02 c0       	rjmp	.+4      	; 0x186e <trans+0x3c>
						39021: BCC 39033
						*/
			carry = 0;
			A = mem39215;
			temp = (int)A + (int)mem39213;
			A = A + mem39213;
    186a:	48 2f       	mov	r20, r24
			if (temp > 255) carry = 1;
			mem39215 = A;
		}
		temp = mem39215 & 1;
		mem39215 = (mem39215 >> 1) | (carry?128:0);
    186c:	8c 2f       	mov	r24, r28
    186e:	95 2f       	mov	r25, r21
    1870:	98 2b       	or	r25, r24
		carry = temp;
		//39033: ROR 39215
		X--;
    1872:	21 50       	subi	r18, 0x01	; 1
	} while (X != 0);
    1874:	39 f7       	brne	.-50     	; 0x1844 <trans+0x12>
    1876:	04 c0       	rjmp	.+8      	; 0x1880 <trans+0x4e>
			A = A + mem39213;
			if (temp > 255) carry = 1;
			mem39215 = A;
		}
		temp = mem39215 & 1;
		mem39215 = (mem39215 >> 1) | (carry?128:0);
    1878:	59 2f       	mov	r21, r25
    187a:	56 95       	lsr	r21
    187c:	87 2f       	mov	r24, r23
    187e:	f7 cf       	rjmp	.-18     	; 0x186e <trans+0x3c>
    1880:	40 93 d6 03 	sts	0x03D6, r20	; 0x8003d6 <A>
    1884:	10 92 93 08 	sts	0x0893, r1	; 0x800893 <X>
	} while (X != 0);
	temp = mem39214 & 128;
	mem39214 = (mem39214 << 1) | (carry?1:0);
	carry = temp;
	temp = mem39215 & 128;
	mem39215 = (mem39215 << 1) | (carry?1:0);
    1888:	89 2f       	mov	r24, r25
    188a:	90 e0       	ldi	r25, 0x00	; 0
    188c:	88 0f       	add	r24, r24
    188e:	99 1f       	adc	r25, r25
	carry = temp;

	return mem39215;
}
    1890:	cf 91       	pop	r28
    1892:	08 95       	ret

00001894 <SetMouthThroat>:
    SAM's voice can be altered by changing the frequencies of the
    mouth formant (F1) and the throat formant (F2). Only the voiced
    phonemes (5-29 and 48-53) are altered.
*/
void SetMouthThroat(unsigned char mouth, unsigned char throat)
{
    1894:	8f 92       	push	r8
    1896:	9f 92       	push	r9
    1898:	af 92       	push	r10
    189a:	bf 92       	push	r11
    189c:	cf 92       	push	r12
    189e:	df 92       	push	r13
    18a0:	ef 92       	push	r14
    18a2:	ff 92       	push	r15
    18a4:	0f 93       	push	r16
    18a6:	1f 93       	push	r17
    18a8:	cf 93       	push	r28
    18aa:	df 93       	push	r29
    18ac:	cd b7       	in	r28, 0x3d	; 61
    18ae:	de b7       	in	r29, 0x3e	; 62
    18b0:	c8 54       	subi	r28, 0x48	; 72
    18b2:	d1 09       	sbc	r29, r1
    18b4:	0f b6       	in	r0, 0x3f	; 63
    18b6:	f8 94       	cli
    18b8:	de bf       	out	0x3e, r29	; 62
    18ba:	0f be       	out	0x3f, r0	; 63
    18bc:	cd bf       	out	0x3d, r28	; 61
    18be:	98 2e       	mov	r9, r24
    18c0:	86 2e       	mov	r8, r22
	unsigned char newFrequency = 0;
	//unsigned char mouth; //mem38880
	//unsigned char throat; //mem38881

	// mouth formants (F1) 5..29
	const unsigned char mouthFormants5_29[30] PROGMEM = {
    18c2:	8e e1       	ldi	r24, 0x1E	; 30
    18c4:	e5 ef       	ldi	r30, 0xF5	; 245
    18c6:	f1 e0       	ldi	r31, 0x01	; 1
    18c8:	de 01       	movw	r26, r28
    18ca:	11 96       	adiw	r26, 0x01	; 1
    18cc:	01 90       	ld	r0, Z+
    18ce:	0d 92       	st	X+, r0
    18d0:	8a 95       	dec	r24
    18d2:	e1 f7       	brne	.-8      	; 0x18cc <SetMouthThroat+0x38>
		0, 0, 0, 0, 0, 10,
		14, 19, 24, 27, 23, 21, 16, 20, 14, 18, 14, 18, 18,
		16, 13, 15, 11, 18, 14, 11, 9, 6, 6, 6};

	// throat formants (F2) 5..29
	const unsigned char throatFormants5_29[30] PROGMEM = {
    18d4:	8e e1       	ldi	r24, 0x1E	; 30
    18d6:	e3 e1       	ldi	r30, 0x13	; 19
    18d8:	f2 e0       	ldi	r31, 0x02	; 2
    18da:	de 01       	movw	r26, r28
    18dc:	5f 96       	adiw	r26, 0x1f	; 31
    18de:	01 90       	ld	r0, Z+
    18e0:	0d 92       	st	X+, r0
    18e2:	8a 95       	dec	r24
    18e4:	e1 f7       	brne	.-8      	; 0x18de <SetMouthThroat+0x4a>
	255, 255, 255, 84, 73, 67, 63, 40, 44, 31, 37, 45, 73, 49,
	36, 30, 51, 37, 29, 69, 24, 50, 30, 24, 83, 46, 54, 86};

	// there must be no zeros in this 2 tables
	// formant 1 frequencies (mouth) 48..53
	const unsigned char mouthFormants48_53[6] PROGMEM = {19, 27, 21, 27, 18, 13};
    18e6:	86 e0       	ldi	r24, 0x06	; 6
    18e8:	e1 e3       	ldi	r30, 0x31	; 49
    18ea:	f2 e0       	ldi	r31, 0x02	; 2
    18ec:	de 01       	movw	r26, r28
    18ee:	dd 96       	adiw	r26, 0x3d	; 61
    18f0:	01 90       	ld	r0, Z+
    18f2:	0d 92       	st	X+, r0
    18f4:	8a 95       	dec	r24
    18f6:	e1 f7       	brne	.-8      	; 0x18f0 <SetMouthThroat+0x5c>
       
	// formant 2 frequencies (throat) 48..53
	const unsigned char throatFormants48_53[6] PROGMEM = {72, 39, 31, 43, 30, 34};
    18f8:	86 e0       	ldi	r24, 0x06	; 6
    18fa:	e7 e3       	ldi	r30, 0x37	; 55
    18fc:	f2 e0       	ldi	r31, 0x02	; 2
    18fe:	de 01       	movw	r26, r28
    1900:	ad 5b       	subi	r26, 0xBD	; 189
    1902:	bf 4f       	sbci	r27, 0xFF	; 255
    1904:	01 90       	ld	r0, Z+
    1906:	0d 92       	st	X+, r0
    1908:	8a 95       	dec	r24
    190a:	e1 f7       	brne	.-8      	; 0x1904 <SetMouthThroat+0x70>
    190c:	0f 2e       	mov	r0, r31
    190e:	fb e0       	ldi	r31, 0x0B	; 11
    1910:	cf 2e       	mov	r12, r31
    1912:	f1 e0       	ldi	r31, 0x01	; 1
    1914:	df 2e       	mov	r13, r31
    1916:	f0 2d       	mov	r31, r0
    1918:	0f 2e       	mov	r0, r31
    191a:	fb e5       	ldi	r31, 0x5B	; 91
    191c:	ef 2e       	mov	r14, r31
    191e:	f1 e0       	ldi	r31, 0x01	; 1
    1920:	ff 2e       	mov	r15, r31
    1922:	f0 2d       	mov	r31, r0
    1924:	a1 2c       	mov	r10, r1
    1926:	b1 2c       	mov	r11, r1
    phonemes (5-29 and 48-53) are altered.
*/
void SetMouthThroat(unsigned char mouth, unsigned char throat)
{
	unsigned char initialFrequency;
	unsigned char newFrequency = 0;
    1928:	80 e0       	ldi	r24, 0x00	; 0
    192a:	85 01       	movw	r16, r10
    192c:	0b 5f       	subi	r16, 0xFB	; 251
    192e:	1f 4f       	sbci	r17, 0xFF	; 255
    1930:	e1 e0       	ldi	r30, 0x01	; 1
    1932:	f0 e0       	ldi	r31, 0x00	; 0
    1934:	ec 0f       	add	r30, r28
    1936:	fd 1f       	adc	r31, r29
    1938:	e0 0f       	add	r30, r16
    193a:	f1 1f       	adc	r31, r17
//pos38942:
	// recalculate formant frequencies 5..29 for the mouth (F1) and throat (F2)
	while(pos != 30)
	{
		// recalculate mouth frequency
		initialFrequency = pgm_read_byte(&(mouthFormants5_29[pos]));
    193c:	64 91       	lpm	r22, Z
		if (initialFrequency != 0) newFrequency = trans(mouth, initialFrequency);
    193e:	66 23       	and	r22, r22
    1940:	11 f0       	breq	.+4      	; 0x1946 <SetMouthThroat+0xb2>
    1942:	89 2d       	mov	r24, r9
    1944:	76 df       	rcall	.-276    	; 0x1832 <trans>
		freq1data[pos] = newFrequency;
    1946:	f7 01       	movw	r30, r14
    1948:	81 93       	st	Z+, r24
    194a:	7f 01       	movw	r14, r30
    194c:	ef e1       	ldi	r30, 0x1F	; 31
    194e:	f0 e0       	ldi	r31, 0x00	; 0
    1950:	ec 0f       	add	r30, r28
    1952:	fd 1f       	adc	r31, r29
    1954:	e0 0f       	add	r30, r16
    1956:	f1 1f       	adc	r31, r17
               
		// recalculate throat frequency
		initialFrequency = pgm_read_byte(&(throatFormants5_29[pos]));
    1958:	64 91       	lpm	r22, Z
		if(initialFrequency != 0) newFrequency = trans(throat, initialFrequency);
    195a:	66 23       	and	r22, r22
    195c:	11 f0       	breq	.+4      	; 0x1962 <SetMouthThroat+0xce>
    195e:	88 2d       	mov	r24, r8
    1960:	68 df       	rcall	.-304    	; 0x1832 <trans>
		freq2data[pos] = newFrequency;
    1962:	f6 01       	movw	r30, r12
    1964:	81 93       	st	Z+, r24
    1966:	6f 01       	movw	r12, r30
    1968:	ff ef       	ldi	r31, 0xFF	; 255
    196a:	af 1a       	sub	r10, r31
    196c:	bf 0a       	sbc	r11, r31
	const unsigned char throatFormants48_53[6] PROGMEM = {72, 39, 31, 43, 30, 34};

	unsigned char pos = 5; //mem39216
//pos38942:
	// recalculate formant frequencies 5..29 for the mouth (F1) and throat (F2)
	while(pos != 30)
    196e:	99 e1       	ldi	r25, 0x19	; 25
    1970:	a9 16       	cp	r10, r25
    1972:	b1 04       	cpc	r11, r1
    1974:	d1 f6       	brne	.-76     	; 0x192a <SetMouthThroat+0x96>
	}

//pos39059:
	// recalculate formant frequencies 48..53
	pos = 48;
	Y = 0;
    1976:	10 92 d8 04 	sts	0x04D8, r1	; 0x8004d8 <Y>
    197a:	06 e8       	ldi	r16, 0x86	; 134
    197c:	11 e0       	ldi	r17, 0x01	; 1
    197e:	0f 2e       	mov	r0, r31
    1980:	f6 e3       	ldi	r31, 0x36	; 54
    1982:	ef 2e       	mov	r14, r31
    1984:	f1 e0       	ldi	r31, 0x01	; 1
    1986:	ff 2e       	mov	r15, r31
    1988:	f0 2d       	mov	r31, r0
    198a:	0f 2e       	mov	r0, r31
    198c:	fc e8       	ldi	r31, 0x8C	; 140
    198e:	cf 2e       	mov	r12, r31
    1990:	f1 e0       	ldi	r31, 0x01	; 1
    1992:	df 2e       	mov	r13, r31
    1994:	f0 2d       	mov	r31, r0
    while(pos != 54)
    {
		// recalculate F1 (mouth formant)
		initialFrequency = pgm_read_byte(&(mouthFormants48_53[Y]));
    1996:	80 91 d8 04 	lds	r24, 0x04D8	; 0x8004d8 <Y>
    199a:	ed e3       	ldi	r30, 0x3D	; 61
    199c:	f0 e0       	ldi	r31, 0x00	; 0
    199e:	ec 0f       	add	r30, r28
    19a0:	fd 1f       	adc	r31, r29
    19a2:	e8 0f       	add	r30, r24
    19a4:	f1 1d       	adc	r31, r1
    19a6:	64 91       	lpm	r22, Z
		newFrequency = trans(mouth, initialFrequency);
    19a8:	89 2d       	mov	r24, r9
    19aa:	43 df       	rcall	.-378    	; 0x1832 <trans>
		freq1data[pos] = newFrequency;
    19ac:	f8 01       	movw	r30, r16
    19ae:	81 93       	st	Z+, r24
    19b0:	8f 01       	movw	r16, r30
           
		// recalculate F2 (throat formant)
		initialFrequency = pgm_read_byte(&(throatFormants48_53[Y]));
    19b2:	80 91 d8 04 	lds	r24, 0x04D8	; 0x8004d8 <Y>
    19b6:	e3 e4       	ldi	r30, 0x43	; 67
    19b8:	f0 e0       	ldi	r31, 0x00	; 0
    19ba:	ec 0f       	add	r30, r28
    19bc:	fd 1f       	adc	r31, r29
    19be:	e8 0f       	add	r30, r24
    19c0:	f1 1d       	adc	r31, r1
    19c2:	64 91       	lpm	r22, Z
		newFrequency = trans(throat, initialFrequency);
    19c4:	88 2d       	mov	r24, r8
    19c6:	35 df       	rcall	.-406    	; 0x1832 <trans>
		freq2data[pos] = newFrequency;
    19c8:	f7 01       	movw	r30, r14
    19ca:	81 93       	st	Z+, r24
    19cc:	7f 01       	movw	r14, r30
		Y++;
    19ce:	80 91 d8 04 	lds	r24, 0x04D8	; 0x8004d8 <Y>
    19d2:	8f 5f       	subi	r24, 0xFF	; 255
    19d4:	80 93 d8 04 	sts	0x04D8, r24	; 0x8004d8 <Y>

//pos39059:
	// recalculate formant frequencies 48..53
	pos = 48;
	Y = 0;
    while(pos != 54)
    19d8:	0c 15       	cp	r16, r12
    19da:	1d 05       	cpc	r17, r13
    19dc:	e1 f6       	brne	.-72     	; 0x1996 <SetMouthThroat+0x102>
		newFrequency = trans(throat, initialFrequency);
		freq2data[pos] = newFrequency;
		Y++;
		pos++;
	}
}
    19de:	c8 5b       	subi	r28, 0xB8	; 184
    19e0:	df 4f       	sbci	r29, 0xFF	; 255
    19e2:	0f b6       	in	r0, 0x3f	; 63
    19e4:	f8 94       	cli
    19e6:	de bf       	out	0x3e, r29	; 62
    19e8:	0f be       	out	0x3f, r0	; 63
    19ea:	cd bf       	out	0x3d, r28	; 61
    19ec:	df 91       	pop	r29
    19ee:	cf 91       	pop	r28
    19f0:	1f 91       	pop	r17
    19f2:	0f 91       	pop	r16
    19f4:	ff 90       	pop	r15
    19f6:	ef 90       	pop	r14
    19f8:	df 90       	pop	r13
    19fa:	cf 90       	pop	r12
    19fc:	bf 90       	pop	r11
    19fe:	af 90       	pop	r10
    1a00:	9f 90       	pop	r9
    1a02:	8f 90       	pop	r8
    1a04:	08 95       	ret

00001a06 <SetInput>:
void SetPitch (unsigned char _pitch ) { pitch  = _pitch;  };
void SetMouth (unsigned char _mouth ) { mouth  = _mouth;  };
void SetThroat(unsigned char _throat) { throat = _throat; };
void EnableSingmode() {singmode = 1;};
char* GetBuffer(){return (char*)NULL; };//return buffer;};
int GetBufferLength(){return 0;};//bufferpos;};
    1a06:	fc 01       	movw	r30, r24
    1a08:	01 90       	ld	r0, Z+
    1a0a:	00 20       	and	r0, r0
    1a0c:	e9 f7       	brne	.-6      	; 0x1a08 <SetInput+0x2>
    1a0e:	31 97       	sbiw	r30, 0x01	; 1
    1a10:	af 01       	movw	r20, r30
    1a12:	48 1b       	sub	r20, r24
    1a14:	59 0b       	sbc	r21, r25
    1a16:	4f 3f       	cpi	r20, 0xFF	; 255
    1a18:	51 05       	cpc	r21, r1
    1a1a:	14 f0       	brlt	.+4      	; 0x1a20 <SetInput+0x1a>
    1a1c:	4e ef       	ldi	r20, 0xFE	; 254
    1a1e:	50 e0       	ldi	r21, 0x00	; 0
    1a20:	14 16       	cp	r1, r20
    1a22:	15 06       	cpc	r1, r21
    1a24:	5c f4       	brge	.+22     	; 0x1a3c <SetInput+0x36>
    1a26:	fc 01       	movw	r30, r24
    1a28:	a8 ed       	ldi	r26, 0xD8	; 216
    1a2a:	b3 e0       	ldi	r27, 0x03	; 3
    1a2c:	9c 01       	movw	r18, r24
    1a2e:	24 0f       	add	r18, r20
    1a30:	35 1f       	adc	r19, r21
    1a32:	91 91       	ld	r25, Z+
    1a34:	9d 93       	st	X+, r25
    1a36:	e2 17       	cp	r30, r18
    1a38:	f3 07       	cpc	r31, r19
    1a3a:	d9 f7       	brne	.-10     	; 0x1a32 <SetInput+0x2c>
    1a3c:	fa 01       	movw	r30, r20
    1a3e:	e8 52       	subi	r30, 0x28	; 40
    1a40:	fc 4f       	sbci	r31, 0xFC	; 252
    1a42:	10 82       	st	Z, r1
    1a44:	08 95       	ret

00001a46 <Init>:
// 172=amplitude1
// 173=amplitude2
// 174=amplitude3

void Init()
{
    1a46:	cf 93       	push	r28
    1a48:	df 93       	push	r29
	int i;
	SetMouthThroat( mouth, throat );
    1a4a:	60 91 a6 01 	lds	r22, 0x01A6	; 0x8001a6 <throat>
    1a4e:	80 91 a7 01 	lds	r24, 0x01A7	; 0x8001a7 <mouth>
    1a52:	20 df       	rcall	.-448    	; 0x1894 <SetMouthThroat>

	buffer = circularBuffer_create(64); // TODO: Rework this to use CircularBuffer instead, to cope with AVR memory constraints.
    1a54:	80 e4       	ldi	r24, 0x40	; 64
    1a56:	90 e0       	ldi	r25, 0x00	; 0
    1a58:	72 da       	rcall	.-2844   	; 0xf3e <circularBuffer_create>
    1a5a:	90 93 40 02 	sts	0x0240, r25	; 0x800240 <buffer+0x1>
    1a5e:	80 93 3f 02 	sts	0x023F, r24	; 0x80023f <buffer>
    1a62:	ea ed       	ldi	r30, 0xDA	; 218
    1a64:	f4 e0       	ldi	r31, 0x04	; 4
    1a66:	a9 e1       	ldi	r26, 0x19	; 25
    1a68:	b7 e0       	ldi	r27, 0x07	; 7
    1a6a:	8a ed       	ldi	r24, 0xDA	; 218
    1a6c:	95 e0       	ldi	r25, 0x05	; 5
	ampl3data = &mem[45456];
	*/

	for(i=0; i<256; i++)
	{
		stress       [i] = 0;
    1a6e:	11 92       	st	Z+, r1
		phonemeLength[i] = 0;
    1a70:	1d 92       	st	X+, r1
	ampl1data = &mem[45296];
	ampl2data = &mem[45376];
	ampl3data = &mem[45456];
	*/

	for(i=0; i<256; i++)
    1a72:	e8 17       	cp	r30, r24
    1a74:	f9 07       	cpc	r31, r25
    1a76:	d9 f7       	brne	.-10     	; 0x1a6e <Init+0x28>
    1a78:	e9 e1       	ldi	r30, 0x19	; 25
    1a7a:	f8 e0       	ldi	r31, 0x08	; 8
    1a7c:	cb ed       	ldi	r28, 0xDB	; 219
    1a7e:	d5 e0       	ldi	r29, 0x05	; 5
    1a80:	a6 e5       	ldi	r26, 0x56	; 86
    1a82:	b8 e0       	ldi	r27, 0x08	; 8
    1a84:	85 e5       	ldi	r24, 0x55	; 85
    1a86:	98 e0       	ldi	r25, 0x08	; 8
		phonemeLength[i] = 0;
	}
	
	for(i=0; i<60; i++)
	{
		phonemeIndexOutput [i] = 0;
    1a88:	11 92       	st	Z+, r1
		stressOutput       [i] = 0;
    1a8a:	19 92       	st	Y+, r1
		phonemeLengthOutput[i] = 0;
    1a8c:	1d 92       	st	X+, r1
	{
		stress       [i] = 0;
		phonemeLength[i] = 0;
	}
	
	for(i=0; i<60; i++)
    1a8e:	e8 17       	cp	r30, r24
    1a90:	f9 07       	cpc	r31, r25
    1a92:	d1 f7       	brne	.-12     	; 0x1a88 <Init+0x42>
	{
		phonemeIndexOutput [i] = 0;
		stressOutput       [i] = 0;
		phonemeLengthOutput[i] = 0;
	}
	phonemeIndex[255] = 255; //to prevent buffer overflow // ML : changed from 32 to 255 to stop freezing with long inputs
    1a94:	8f ef       	ldi	r24, 0xFF	; 255
    1a96:	80 93 16 07 	sts	0x0716, r24	; 0x800716 <phonemeIndex+0xff>
}
    1a9a:	df 91       	pop	r29
    1a9c:	cf 91       	pop	r28
    1a9e:	08 95       	ret

00001aa0 <PrepareOutput>:
}


//void Code48547()
void PrepareOutput()
{
    1aa0:	cf 93       	push	r28
    1aa2:	df 93       	push	r29
	A = 0;
	X = 0;
    1aa4:	10 92 93 08 	sts	0x0893, r1	; 0x800893 <X>
	Y = 0;
    1aa8:	10 92 d8 04 	sts	0x04D8, r1	; 0x8004d8 <Y>
		if (A == 254)
		{
			X++;
			int temp = X;
			//mem[48546] = X;
			phonemeIndexOutput[Y] = 255;
    1aac:	df ef       	ldi	r29, 0xFF	; 255
	Y = 0;

	//pos48551:
	while(1)
	{
		A = phonemeIndex[X];
    1aae:	90 91 93 08 	lds	r25, 0x0893	; 0x800893 <X>
    1ab2:	29 2f       	mov	r18, r25
    1ab4:	30 e0       	ldi	r19, 0x00	; 0
    1ab6:	f9 01       	movw	r30, r18
    1ab8:	e9 5e       	subi	r30, 0xE9	; 233
    1aba:	f9 4f       	sbci	r31, 0xF9	; 249
    1abc:	80 81       	ld	r24, Z
    1abe:	80 93 d6 03 	sts	0x03D6, r24	; 0x8003d6 <A>
		if (A == 255)
    1ac2:	8f 3f       	cpi	r24, 0xFF	; 255
    1ac4:	41 f4       	brne	.+16     	; 0x1ad6 <PrepareOutput+0x36>
		{
			A = 255;
			phonemeIndexOutput[Y] = 255;
    1ac6:	e0 91 d8 04 	lds	r30, 0x04D8	; 0x8004d8 <Y>
    1aca:	f0 e0       	ldi	r31, 0x00	; 0
    1acc:	e7 5e       	subi	r30, 0xE7	; 231
    1ace:	f7 4f       	sbci	r31, 0xF7	; 247
    1ad0:	80 83       	st	Z, r24
			Render();
    1ad2:	1f dc       	rcall	.-1986   	; 0x1312 <Render>
    1ad4:	39 c0       	rjmp	.+114    	; 0x1b48 <PrepareOutput+0xa8>
			return;
		}
		if (A == 254)
    1ad6:	8e 3f       	cpi	r24, 0xFE	; 254
    1ad8:	81 f4       	brne	.+32     	; 0x1afa <PrepareOutput+0x5a>
		{
			X++;
    1ada:	c1 e0       	ldi	r28, 0x01	; 1
    1adc:	c9 0f       	add	r28, r25
    1ade:	c0 93 93 08 	sts	0x0893, r28	; 0x800893 <X>
			int temp = X;
			//mem[48546] = X;
			phonemeIndexOutput[Y] = 255;
    1ae2:	e0 91 d8 04 	lds	r30, 0x04D8	; 0x8004d8 <Y>
    1ae6:	f0 e0       	ldi	r31, 0x00	; 0
    1ae8:	e7 5e       	subi	r30, 0xE7	; 231
    1aea:	f7 4f       	sbci	r31, 0xF7	; 247
    1aec:	d0 83       	st	Z, r29
			Render();
    1aee:	11 dc       	rcall	.-2014   	; 0x1312 <Render>
			//X = mem[48546];
			X=temp;
    1af0:	c0 93 93 08 	sts	0x0893, r28	; 0x800893 <X>
			Y = 0;
    1af4:	10 92 d8 04 	sts	0x04D8, r1	; 0x8004d8 <Y>
			continue;
    1af8:	da cf       	rjmp	.-76     	; 0x1aae <PrepareOutput+0xe>
		}

		if (A == 0)
    1afa:	81 11       	cpse	r24, r1
    1afc:	04 c0       	rjmp	.+8      	; 0x1b06 <PrepareOutput+0x66>
		{
			X++;
    1afe:	9f 5f       	subi	r25, 0xFF	; 255
    1b00:	90 93 93 08 	sts	0x0893, r25	; 0x800893 <X>
			continue;
    1b04:	d4 cf       	rjmp	.-88     	; 0x1aae <PrepareOutput+0xe>
		}

		phonemeIndexOutput  [Y] = A;
    1b06:	60 91 d8 04 	lds	r22, 0x04D8	; 0x8004d8 <Y>
    1b0a:	46 2f       	mov	r20, r22
    1b0c:	50 e0       	ldi	r21, 0x00	; 0
    1b0e:	fa 01       	movw	r30, r20
    1b10:	e7 5e       	subi	r30, 0xE7	; 231
    1b12:	f7 4f       	sbci	r31, 0xF7	; 247
    1b14:	80 83       	st	Z, r24
		phonemeLengthOutput [Y] = phonemeLength [X];
    1b16:	da 01       	movw	r26, r20
    1b18:	aa 5a       	subi	r26, 0xAA	; 170
    1b1a:	b7 4f       	sbci	r27, 0xF7	; 247
    1b1c:	e0 91 93 08 	lds	r30, 0x0893	; 0x800893 <X>
    1b20:	f0 e0       	ldi	r31, 0x00	; 0
    1b22:	e7 5e       	subi	r30, 0xE7	; 231
    1b24:	f8 4f       	sbci	r31, 0xF8	; 248
    1b26:	80 81       	ld	r24, Z
    1b28:	8c 93       	st	X, r24
		stressOutput        [Y] = stress        [X];
    1b2a:	fa 01       	movw	r30, r20
    1b2c:	e5 52       	subi	r30, 0x25	; 37
    1b2e:	fa 4f       	sbci	r31, 0xFA	; 250
    1b30:	d9 01       	movw	r26, r18
    1b32:	a6 52       	subi	r26, 0x26	; 38
    1b34:	bb 4f       	sbci	r27, 0xFB	; 251
    1b36:	8c 91       	ld	r24, X
    1b38:	80 83       	st	Z, r24
		X++;
    1b3a:	9f 5f       	subi	r25, 0xFF	; 255
    1b3c:	90 93 93 08 	sts	0x0893, r25	; 0x800893 <X>
		Y++;
    1b40:	6f 5f       	subi	r22, 0xFF	; 255
    1b42:	60 93 d8 04 	sts	0x04D8, r22	; 0x8004d8 <Y>
    1b46:	b3 cf       	rjmp	.-154    	; 0x1aae <PrepareOutput+0xe>
	}
}
    1b48:	df 91       	pop	r29
    1b4a:	cf 91       	pop	r28
    1b4c:	08 95       	ret

00001b4e <CopyStress>:
// to the L that precedes it.


//void Code41883()
void CopyStress()
{
    1b4e:	21 e0       	ldi	r18, 0x01	; 1
    1b50:	01 c0       	rjmp	.+2      	; 0x1b54 <CopyStress+0x6>
    1b52:	2f 5f       	subi	r18, 0xFF	; 255
    1b54:	8f ef       	ldi	r24, 0xFF	; 255
    1b56:	82 0f       	add	r24, r18
    // loop thought all the phonemes to be output
	unsigned char pos=0; //mem66
	while(1)
	{
        // get the phomene
		Y = phonemeIndex[pos];
    1b58:	90 e0       	ldi	r25, 0x00	; 0
    1b5a:	fc 01       	movw	r30, r24
    1b5c:	e9 5e       	subi	r30, 0xE9	; 233
    1b5e:	f9 4f       	sbci	r31, 0xF9	; 249
    1b60:	e0 81       	ld	r30, Z
		
	    // exit at end of buffer
		if (Y == 255) return;
    1b62:	ef 3f       	cpi	r30, 0xFF	; 255
    1b64:	11 f1       	breq	.+68     	; 0x1baa <CopyStress+0x5c>
		
		// if CONSONANT_FLAG set, skip - only vowels get stress
		if ((pgm_read_byte(&(flags[Y])) & 64) == 0) {pos++; continue;}
    1b66:	f0 e0       	ldi	r31, 0x00	; 0
    1b68:	e9 50       	subi	r30, 0x09	; 9
    1b6a:	f4 4f       	sbci	r31, 0xF4	; 244
    1b6c:	e4 91       	lpm	r30, Z
    1b6e:	e6 ff       	sbrs	r30, 6
    1b70:	f0 cf       	rjmp	.-32     	; 0x1b52 <CopyStress+0x4>
		// get the next phoneme
		Y = phonemeIndex[pos+1];
    1b72:	ac 01       	movw	r20, r24
    1b74:	4f 5f       	subi	r20, 0xFF	; 255
    1b76:	5f 4f       	sbci	r21, 0xFF	; 255
    1b78:	fa 01       	movw	r30, r20
    1b7a:	e9 5e       	subi	r30, 0xE9	; 233
    1b7c:	f9 4f       	sbci	r31, 0xF9	; 249
    1b7e:	e0 81       	ld	r30, Z
		if (Y == 255) //prevent buffer overflow
    1b80:	ef 3f       	cpi	r30, 0xFF	; 255
    1b82:	39 f3       	breq	.-50     	; 0x1b52 <CopyStress+0x4>
		{
			pos++; continue;
		} else
		// if the following phoneme is a vowel, skip
		if ((flags[Y] & 128) == 0)  {pos++; continue;}
    1b84:	f0 e0       	ldi	r31, 0x00	; 0
    1b86:	e9 50       	subi	r30, 0x09	; 9
    1b88:	f4 4f       	sbci	r31, 0xF4	; 244
    1b8a:	30 81       	ld	r19, Z
    1b8c:	33 23       	and	r19, r19
    1b8e:	0c f7       	brge	.-62     	; 0x1b52 <CopyStress+0x4>

        // get the stress value at the next position
		Y = stress[pos+1];
    1b90:	fa 01       	movw	r30, r20
    1b92:	e6 52       	subi	r30, 0x26	; 38
    1b94:	fb 4f       	sbci	r31, 0xFB	; 251
    1b96:	30 81       	ld	r19, Z
		
		// if next phoneme is not stressed, skip
		if (Y == 0)  {pos++; continue;}
    1b98:	33 23       	and	r19, r19
    1b9a:	d9 f2       	breq	.-74     	; 0x1b52 <CopyStress+0x4>

		// if next phoneme is not a VOWEL OR ER, skip
		if ((Y & 128) != 0)  {pos++; continue;}
    1b9c:	d4 f2       	brlt	.-76     	; 0x1b52 <CopyStress+0x4>

		// copy stress from prior phoneme to this one
		stress[pos] = Y+1;
    1b9e:	fc 01       	movw	r30, r24
    1ba0:	e6 52       	subi	r30, 0x26	; 38
    1ba2:	fb 4f       	sbci	r31, 0xFB	; 251
    1ba4:	3f 5f       	subi	r19, 0xFF	; 255
    1ba6:	30 83       	st	Z, r19
    1ba8:	d4 cf       	rjmp	.-88     	; 0x1b52 <CopyStress+0x4>
    1baa:	8f ef       	ldi	r24, 0xFF	; 255
    1bac:	80 93 d8 04 	sts	0x04D8, r24	; 0x8004d8 <Y>
    1bb0:	08 95       	ret

00001bb2 <Insert>:
}


//void Code41014()
void Insert(unsigned char position/*var57*/, unsigned char mem60, unsigned char mem59, unsigned char mem58)
{
    1bb2:	af 92       	push	r10
    1bb4:	bf 92       	push	r11
    1bb6:	cf 92       	push	r12
    1bb8:	df 92       	push	r13
    1bba:	ef 92       	push	r14
    1bbc:	ff 92       	push	r15
    1bbe:	0f 93       	push	r16
    1bc0:	1f 93       	push	r17
    1bc2:	cf 93       	push	r28
    1bc4:	df 93       	push	r29
    1bc6:	74 2f       	mov	r23, r20
	int i;
	for(i=253; i >= position; i--) // ML : always keep last safe-guarding 255	
    1bc8:	48 2f       	mov	r20, r24
    1bca:	50 e0       	ldi	r21, 0x00	; 0
    1bcc:	4e 3f       	cpi	r20, 0xFE	; 254
    1bce:	51 05       	cpc	r21, r1
    1bd0:	64 f5       	brge	.+88     	; 0x1c2a <Insert+0x78>
    1bd2:	0f 2e       	mov	r0, r31
    1bd4:	f5 e1       	ldi	r31, 0x15	; 21
    1bd6:	cf 2e       	mov	r12, r31
    1bd8:	f7 e0       	ldi	r31, 0x07	; 7
    1bda:	df 2e       	mov	r13, r31
    1bdc:	f0 2d       	mov	r31, r0
    1bde:	0f 2e       	mov	r0, r31
    1be0:	f6 e1       	ldi	r31, 0x16	; 22
    1be2:	ef 2e       	mov	r14, r31
    1be4:	f7 e0       	ldi	r31, 0x07	; 7
    1be6:	ff 2e       	mov	r15, r31
    1be8:	f0 2d       	mov	r31, r0
    1bea:	07 e1       	ldi	r16, 0x17	; 23
    1bec:	18 e0       	ldi	r17, 0x08	; 8
    1bee:	c8 e1       	ldi	r28, 0x18	; 24
    1bf0:	d8 e0       	ldi	r29, 0x08	; 8
    1bf2:	a8 ed       	ldi	r26, 0xD8	; 216
    1bf4:	b5 e0       	ldi	r27, 0x05	; 5
    1bf6:	0f 2e       	mov	r0, r31
    1bf8:	f9 ed       	ldi	r31, 0xD9	; 217
    1bfa:	af 2e       	mov	r10, r31
    1bfc:	f5 e0       	ldi	r31, 0x05	; 5
    1bfe:	bf 2e       	mov	r11, r31
    1c00:	f0 2d       	mov	r31, r0
    1c02:	8d ef       	ldi	r24, 0xFD	; 253
    1c04:	90 e0       	ldi	r25, 0x00	; 0
	{
		phonemeIndex [i+1] = phonemeIndex[i];
    1c06:	f6 01       	movw	r30, r12
    1c08:	32 91       	ld	r19, -Z
    1c0a:	6f 01       	movw	r12, r30
    1c0c:	f7 01       	movw	r30, r14
    1c0e:	32 93       	st	-Z, r19
    1c10:	7f 01       	movw	r14, r30
		phonemeLength[i+1] = phonemeLength[i];
    1c12:	f8 01       	movw	r30, r16
    1c14:	32 91       	ld	r19, -Z
    1c16:	8f 01       	movw	r16, r30
    1c18:	3a 93       	st	-Y, r19
		stress       [i+1] = stress[i];
    1c1a:	3e 91       	ld	r19, -X
    1c1c:	f5 01       	movw	r30, r10
    1c1e:	32 93       	st	-Z, r19
    1c20:	5f 01       	movw	r10, r30

//void Code41014()
void Insert(unsigned char position/*var57*/, unsigned char mem60, unsigned char mem59, unsigned char mem58)
{
	int i;
	for(i=253; i >= position; i--) // ML : always keep last safe-guarding 255	
    1c22:	01 97       	sbiw	r24, 0x01	; 1
    1c24:	84 17       	cp	r24, r20
    1c26:	95 07       	cpc	r25, r21
    1c28:	74 f7       	brge	.-36     	; 0x1c06 <Insert+0x54>
		phonemeIndex [i+1] = phonemeIndex[i];
		phonemeLength[i+1] = phonemeLength[i];
		stress       [i+1] = stress[i];
	}

	phonemeIndex [position] = mem60;
    1c2a:	fa 01       	movw	r30, r20
    1c2c:	e9 5e       	subi	r30, 0xE9	; 233
    1c2e:	f9 4f       	sbci	r31, 0xF9	; 249
    1c30:	60 83       	st	Z, r22
	phonemeLength[position] = mem59;
    1c32:	fa 01       	movw	r30, r20
    1c34:	e7 5e       	subi	r30, 0xE7	; 231
    1c36:	f8 4f       	sbci	r31, 0xF8	; 248
    1c38:	70 83       	st	Z, r23
	stress       [position] = mem58;
    1c3a:	fa 01       	movw	r30, r20
    1c3c:	e6 52       	subi	r30, 0x26	; 38
    1c3e:	fb 4f       	sbci	r31, 0xFB	; 251
    1c40:	20 83       	st	Z, r18
	return;
}
    1c42:	df 91       	pop	r29
    1c44:	cf 91       	pop	r28
    1c46:	1f 91       	pop	r17
    1c48:	0f 91       	pop	r16
    1c4a:	ff 90       	pop	r15
    1c4c:	ef 90       	pop	r14
    1c4e:	df 90       	pop	r13
    1c50:	cf 90       	pop	r12
    1c52:	bf 90       	pop	r11
    1c54:	af 90       	pop	r10
    1c56:	08 95       	ret

00001c58 <InsertBreath>:
	}
}

//void Code48431()
void InsertBreath()
{
    1c58:	0f 93       	push	r16
    1c5a:	1f 93       	push	r17
    1c5c:	cf 93       	push	r28
    1c5e:	df 93       	push	r29
	unsigned char mem55;
	unsigned char index; //variable Y
	mem54 = 255;
	X++;
	mem55 = 0;
	unsigned char mem66 = 0;
    1c60:	c0 e0       	ldi	r28, 0x00	; 0
	unsigned char mem54;
	unsigned char mem55;
	unsigned char index; //variable Y
	mem54 = 255;
	X++;
	mem55 = 0;
    1c62:	30 e0       	ldi	r19, 0x00	; 0
void InsertBreath()
{
	unsigned char mem54;
	unsigned char mem55;
	unsigned char index; //variable Y
	mem54 = 255;
    1c64:	df ef       	ldi	r29, 0xFF	; 255
			if (index == 0) mem54 = X;
			mem66++;
			continue;
		}
		X = mem54;
		phonemeIndex  [X] = 31; // 'Q*' glottal stop
    1c66:	0f e1       	ldi	r16, 0x1F	; 31
		phonemeLength [X] = 4;
    1c68:	14 e0       	ldi	r17, 0x04	; 4
	mem55 = 0;
	unsigned char mem66 = 0;
	while(1)
	{
		//pos48440:
		X = mem66;
    1c6a:	c0 93 93 08 	sts	0x0893, r28	; 0x800893 <X>
		index = phonemeIndex[X];
    1c6e:	8c 2f       	mov	r24, r28
    1c70:	90 e0       	ldi	r25, 0x00	; 0
    1c72:	fc 01       	movw	r30, r24
    1c74:	e9 5e       	subi	r30, 0xE9	; 233
    1c76:	f9 4f       	sbci	r31, 0xF9	; 249
    1c78:	20 81       	ld	r18, Z
		if (index == 255) return;
    1c7a:	2f 3f       	cpi	r18, 0xFF	; 255
    1c7c:	09 f4       	brne	.+2      	; 0x1c80 <InsertBreath+0x28>
    1c7e:	40 c0       	rjmp	.+128    	; 0x1d00 <InsertBreath+0xa8>
		mem55 += phonemeLength[X];
    1c80:	fc 01       	movw	r30, r24
    1c82:	e7 5e       	subi	r30, 0xE7	; 231
    1c84:	f8 4f       	sbci	r31, 0xF8	; 248
    1c86:	80 81       	ld	r24, Z
    1c88:	38 0f       	add	r19, r24

		if (mem55 < 232)
    1c8a:	38 3e       	cpi	r19, 0xE8	; 232
    1c8c:	e8 f4       	brcc	.+58     	; 0x1cc8 <InsertBreath+0x70>
		{
			if (index != 254) // ML : Prevents an index out of bounds problem		
    1c8e:	2e 3f       	cpi	r18, 0xFE	; 254
    1c90:	c9 f0       	breq	.+50     	; 0x1cc4 <InsertBreath+0x6c>
			{
				A = pgm_read_byte(&(flags2[index])) & 1;
    1c92:	e2 2f       	mov	r30, r18
    1c94:	f0 e0       	ldi	r31, 0x00	; 0
    1c96:	e7 55       	subi	r30, 0x57	; 87
    1c98:	f4 4f       	sbci	r31, 0xF4	; 244
    1c9a:	e4 91       	lpm	r30, Z
    1c9c:	e1 70       	andi	r30, 0x01	; 1
    1c9e:	e0 93 d6 03 	sts	0x03D6, r30	; 0x8003d6 <A>
				if(A != 0)
    1ca2:	ee 23       	and	r30, r30
    1ca4:	61 f0       	breq	.+24     	; 0x1cbe <InsertBreath+0x66>
				{
					X++;
    1ca6:	81 e0       	ldi	r24, 0x01	; 1
    1ca8:	8c 0f       	add	r24, r28
    1caa:	80 93 93 08 	sts	0x0893, r24	; 0x800893 <X>
					mem55 = 0;
					Insert(X, 254, mem59, 0);
    1cae:	20 e0       	ldi	r18, 0x00	; 0
    1cb0:	40 91 41 02 	lds	r20, 0x0241	; 0x800241 <mem59>
    1cb4:	6e ef       	ldi	r22, 0xFE	; 254
    1cb6:	7d df       	rcall	.-262    	; 0x1bb2 <Insert>
					mem66++;
					mem66++;
    1cb8:	ce 5f       	subi	r28, 0xFE	; 254
			{
				A = pgm_read_byte(&(flags2[index])) & 1;
				if(A != 0)
				{
					X++;
					mem55 = 0;
    1cba:	30 e0       	ldi	r19, 0x00	; 0
					Insert(X, 254, mem59, 0);
					mem66++;
					mem66++;
					continue;
    1cbc:	d6 cf       	rjmp	.-84     	; 0x1c6a <InsertBreath+0x12>
				}
			}
			if (index == 0) mem54 = X;
    1cbe:	21 11       	cpse	r18, r1
    1cc0:	01 c0       	rjmp	.+2      	; 0x1cc4 <InsertBreath+0x6c>
    1cc2:	dc 2f       	mov	r29, r28
			mem66++;
    1cc4:	cf 5f       	subi	r28, 0xFF	; 255
			continue;
    1cc6:	d1 cf       	rjmp	.-94     	; 0x1c6a <InsertBreath+0x12>
		}
		X = mem54;
		phonemeIndex  [X] = 31; // 'Q*' glottal stop
    1cc8:	8d 2f       	mov	r24, r29
    1cca:	90 e0       	ldi	r25, 0x00	; 0
    1ccc:	fc 01       	movw	r30, r24
    1cce:	e9 5e       	subi	r30, 0xE9	; 233
    1cd0:	f9 4f       	sbci	r31, 0xF9	; 249
    1cd2:	00 83       	st	Z, r16
		phonemeLength [X] = 4;
    1cd4:	fc 01       	movw	r30, r24
    1cd6:	e7 5e       	subi	r30, 0xE7	; 231
    1cd8:	f8 4f       	sbci	r31, 0xF8	; 248
    1cda:	10 83       	st	Z, r17
		stress        [X] = 0;
    1cdc:	fc 01       	movw	r30, r24
    1cde:	e6 52       	subi	r30, 0x26	; 38
    1ce0:	fb 4f       	sbci	r31, 0xFB	; 251
    1ce2:	10 82       	st	Z, r1
		X++;
    1ce4:	81 e0       	ldi	r24, 0x01	; 1
    1ce6:	8d 0f       	add	r24, r29
    1ce8:	80 93 93 08 	sts	0x0893, r24	; 0x800893 <X>
		mem55 = 0;
		Insert(X, 254, mem59, 0);
    1cec:	20 e0       	ldi	r18, 0x00	; 0
    1cee:	40 91 41 02 	lds	r20, 0x0241	; 0x800241 <mem59>
    1cf2:	6e ef       	ldi	r22, 0xFE	; 254
    1cf4:	5e df       	rcall	.-324    	; 0x1bb2 <Insert>
		X++;
    1cf6:	c0 91 93 08 	lds	r28, 0x0893	; 0x800893 <X>
    1cfa:	cf 5f       	subi	r28, 0xFF	; 255
		X = mem54;
		phonemeIndex  [X] = 31; // 'Q*' glottal stop
		phonemeLength [X] = 4;
		stress        [X] = 0;
		X++;
		mem55 = 0;
    1cfc:	30 e0       	ldi	r19, 0x00	; 0
    1cfe:	b5 cf       	rjmp	.-150    	; 0x1c6a <InsertBreath+0x12>
		Insert(X, 254, mem59, 0);
		X++;
		mem66 = X;
	}

}
    1d00:	df 91       	pop	r29
    1d02:	cf 91       	pop	r28
    1d04:	1f 91       	pop	r17
    1d06:	0f 91       	pop	r16
    1d08:	08 95       	ret

00001d0a <Parser1>:
//
// The character <0x9B> marks the end of text in input[]. When it is reached,
// the index 255 is placed at the end of the phonemeIndexTable[], and the
// function returns with a 1 indicating success.
int Parser1()
{
    1d0a:	6f 92       	push	r6
    1d0c:	7f 92       	push	r7
    1d0e:	9f 92       	push	r9
    1d10:	af 92       	push	r10
    1d12:	bf 92       	push	r11
    1d14:	cf 92       	push	r12
    1d16:	df 92       	push	r13
    1d18:	ef 92       	push	r14
    1d1a:	ff 92       	push	r15
    1d1c:	0f 93       	push	r16
    1d1e:	1f 93       	push	r17
    1d20:	cf 93       	push	r28
    1d22:	df 93       	push	r29
	int i;
	unsigned char sign1;
	unsigned char sign2;
	unsigned char position = 0;
	X = 0;
    1d24:	10 92 93 08 	sts	0x0893, r1	; 0x800893 <X>
	A = 0;
    1d28:	10 92 d6 03 	sts	0x03D6, r1	; 0x8003d6 <A>
	Y = 0;
    1d2c:	10 92 d8 04 	sts	0x04D8, r1	; 0x8004d8 <Y>
    1d30:	ea ed       	ldi	r30, 0xDA	; 218
    1d32:	f4 e0       	ldi	r31, 0x04	; 4
    1d34:	8a ed       	ldi	r24, 0xDA	; 218
    1d36:	95 e0       	ldi	r25, 0x05	; 5
	
	// CLEAR THE STRESS TABLE
	for(i=0; i<256; i++)
		stress[i] = 0;
    1d38:	11 92       	st	Z+, r1
	X = 0;
	A = 0;
	Y = 0;
	
	// CLEAR THE STRESS TABLE
	for(i=0; i<256; i++)
    1d3a:	e8 17       	cp	r30, r24
    1d3c:	f9 07       	cpc	r31, r25
    1d3e:	e1 f7       	brne	.-8      	; 0x1d38 <Parser1+0x2e>
    1d40:	b0 90 93 08 	lds	r11, 0x0893	; 0x800893 <X>
    1d44:	90 91 d8 04 	lds	r25, 0x04D8	; 0x8004d8 <Y>
    1d48:	80 91 d6 03 	lds	r24, 0x03D6	; 0x8003d6 <A>
    1d4c:	00 e0       	ldi	r16, 0x00	; 0
			return 1;       //all ok
		}
		
		// GET THE NEXT CHARACTER FROM THE BUFFER
		X++;
		sign2 = input[X];
    1d4e:	d1 2c       	mov	r13, r1
    1d50:	e1 2c       	mov	r14, r1
    1d52:	a8 e4       	ldi	r26, 0x48	; 72
    1d54:	bc e0       	ldi	r27, 0x0C	; 12
    1d56:	49 e9       	ldi	r20, 0x99	; 153
    1d58:	5c e0       	ldi	r21, 0x0C	; 12
    1d5a:	6a ee       	ldi	r22, 0xEA	; 234
    1d5c:	7c e0       	ldi	r23, 0x0C	; 12

        // SET INDEX TO POSITION 8 (END OF STRESS TABLE)
		Y = 8;
		
       // WALK BACK THROUGH TABLE LOOKING FOR A MATCH
		while( (sign1 != pgm_read_byte(&(stressInputTable[Y]))) && (Y>0))
    1d5e:	0f 2e       	mov	r0, r31
    1d60:	f2 ef       	ldi	r31, 0xF2	; 242
    1d62:	6f 2e       	mov	r6, r31
    1d64:	fc e0       	ldi	r31, 0x0C	; 12
    1d66:	7f 2e       	mov	r7, r31
    1d68:	f0 2d       	mov	r31, r0
    1d6a:	68 94       	set
    1d6c:	99 24       	eor	r9, r9
    1d6e:	93 f8       	bld	r9, 3
    1d70:	0f 2e       	mov	r0, r31
    1d72:	f7 e0       	ldi	r31, 0x07	; 7
    1d74:	cf 2e       	mov	r12, r31
    1d76:	f0 2d       	mov	r31, r0
  // THIS CODE MATCHES THE PHONEME LETTERS TO THE TABLE
	// pos41078:
	while(1)
	{
        // GET THE FIRST CHARACTER FROM THE PHONEME BUFFER
		sign1 = input[X];
    1d78:	eb 2d       	mov	r30, r11
    1d7a:	f0 e0       	ldi	r31, 0x00	; 0
    1d7c:	e8 52       	subi	r30, 0x28	; 40
    1d7e:	fc 4f       	sbci	r31, 0xFC	; 252
    1d80:	10 81       	ld	r17, Z
		// TEST FOR 155 () END OF LINE MARKER
		if (sign1 == 155)
    1d82:	1b 39       	cpi	r17, 0x9B	; 155
    1d84:	79 f4       	brne	.+30     	; 0x1da4 <Parser1+0x9a>
    1d86:	90 93 d8 04 	sts	0x04D8, r25	; 0x8004d8 <Y>
    1d8a:	80 93 d6 03 	sts	0x03D6, r24	; 0x8003d6 <A>
    1d8e:	b0 92 93 08 	sts	0x0893, r11	; 0x800893 <X>
		{
           // MARK ENDPOINT AND RETURN
			phonemeIndex[position] = 255;      //mark endpoint
    1d92:	e0 2f       	mov	r30, r16
    1d94:	f0 e0       	ldi	r31, 0x00	; 0
    1d96:	e9 5e       	subi	r30, 0xE9	; 233
    1d98:	f9 4f       	sbci	r31, 0xF9	; 249
    1d9a:	8f ef       	ldi	r24, 0xFF	; 255
    1d9c:	80 83       	st	Z, r24
			// REACHED END OF PHONEMES, SO EXIT
			return 1;       //all ok
    1d9e:	81 e0       	ldi	r24, 0x01	; 1
    1da0:	90 e0       	ldi	r25, 0x00	; 0
    1da2:	72 c0       	rjmp	.+228    	; 0x1e88 <Parser1+0x17e>
		}
		
		// GET THE NEXT CHARACTER FROM THE BUFFER
		X++;
    1da4:	ff 24       	eor	r15, r15
    1da6:	f3 94       	inc	r15
    1da8:	fb 0c       	add	r15, r11
		sign2 = input[X];
    1daa:	ef 2d       	mov	r30, r15
    1dac:	f0 e0       	ldi	r31, 0x00	; 0
    1dae:	e8 52       	subi	r30, 0x28	; 40
    1db0:	fc 4f       	sbci	r31, 0xFC	; 252
    1db2:	a0 80       	ld	r10, Z
    1db4:	2d 2d       	mov	r18, r13
    1db6:	3e 2d       	mov	r19, r14
    1db8:	92 2f       	mov	r25, r18
    1dba:	f9 01       	movw	r30, r18
    1dbc:	e7 56       	subi	r30, 0x67	; 103
    1dbe:	f3 4f       	sbci	r31, 0xF3	; 243
		Y = 0;
pos41095:
         
         // GET FIRST CHARACTER AT POSITION Y IN signInputTable
         // --> should change name to PhonemeNameTable1
		A = pgm_read_byte(&(signInputTable1[Y]));
    1dc0:	e4 91       	lpm	r30, Z
		
		// FIRST CHARACTER MATCHES?
		if (A == sign1)
    1dc2:	1e 13       	cpse	r17, r30
    1dc4:	13 c0       	rjmp	.+38     	; 0x1dec <Parser1+0xe2>
    1dc6:	f9 01       	movw	r30, r18
    1dc8:	e8 5b       	subi	r30, 0xB8	; 184
    1dca:	f3 4f       	sbci	r31, 0xF3	; 243
		{
           // GET THE CHARACTER FROM THE PhonemeSecondLetterTable
			A = pgm_read_byte(&(signInputTable2[Y]));
    1dcc:	e4 91       	lpm	r30, Z
			// NOT A SPECIAL AND MATCHES SECOND CHARACTER?
			if ((A != '*') && (A == sign2))
    1dce:	ea 32       	cpi	r30, 0x2A	; 42
    1dd0:	79 f0       	breq	.+30     	; 0x1df0 <Parser1+0xe6>
    1dd2:	ae 12       	cpse	r10, r30
    1dd4:	0f c0       	rjmp	.+30     	; 0x1df4 <Parser1+0xea>
			{
               // STORE THE INDEX OF THE PHONEME INTO THE phomeneIndexTable
				phonemeIndex[position] = Y;
    1dd6:	20 2f       	mov	r18, r16
    1dd8:	30 e0       	ldi	r19, 0x00	; 0
    1dda:	e9 01       	movw	r28, r18
    1ddc:	c9 5e       	subi	r28, 0xE9	; 233
    1dde:	d9 4f       	sbci	r29, 0xF9	; 249
    1de0:	98 83       	st	Y, r25
				
				// ADVANCE THE POINTER TO THE phonemeIndexTable
				position++;
    1de2:	0f 5f       	subi	r16, 0xFF	; 255
				// ADVANCE THE POINTER TO THE phonemeInputBuffer
				X++;
    1de4:	b3 94       	inc	r11
    1de6:	b3 94       	inc	r11
		
		// FIRST CHARACTER MATCHES?
		if (A == sign1)
		{
           // GET THE CHARACTER FROM THE PhonemeSecondLetterTable
			A = pgm_read_byte(&(signInputTable2[Y]));
    1de8:	8e 2f       	mov	r24, r30
				position++;
				// ADVANCE THE POINTER TO THE phonemeInputBuffer
				X++;

				// CONTINUE PARSING
				continue;
    1dea:	c6 cf       	rjmp	.-116    	; 0x1d78 <Parser1+0x6e>
		Y = 0;
pos41095:
         
         // GET FIRST CHARACTER AT POSITION Y IN signInputTable
         // --> should change name to PhonemeNameTable1
		A = pgm_read_byte(&(signInputTable1[Y]));
    1dec:	8e 2f       	mov	r24, r30
    1dee:	03 c0       	rjmp	.+6      	; 0x1df6 <Parser1+0xec>
		
		// FIRST CHARACTER MATCHES?
		if (A == sign1)
		{
           // GET THE CHARACTER FROM THE PhonemeSecondLetterTable
			A = pgm_read_byte(&(signInputTable2[Y]));
    1df0:	8a e2       	ldi	r24, 0x2A	; 42
    1df2:	01 c0       	rjmp	.+2      	; 0x1df6 <Parser1+0xec>
    1df4:	8e 2f       	mov	r24, r30
    1df6:	2f 5f       	subi	r18, 0xFF	; 255
    1df8:	3f 4f       	sbci	r19, 0xFF	; 255
		// NO MATCH, TRY TO MATCH ON FIRST CHARACTER TO WILDCARD NAMES (ENDING WITH '*')
		
		// ADVANCE TO THE NEXT POSITION
		Y++;
		// IF NOT END OF TABLE, CONTINUE
		if (Y != 81) goto pos41095;
    1dfa:	21 35       	cpi	r18, 0x51	; 81
    1dfc:	31 05       	cpc	r19, r1
    1dfe:	e1 f6       	brne	.-72     	; 0x1db8 <Parser1+0xae>
    1e00:	ed 01       	movw	r28, r26
    1e02:	fa 01       	movw	r30, r20
    1e04:	9e 2f       	mov	r25, r30
    1e06:	94 1b       	sub	r25, r20

// RESET THE INDEX TO POINT TO THE START OF THE PHONEME NAME TABLE
		Y = 0;
pos41134:
// DOES THE PHONEME IN THE TABLE END WITH '*'?
		if (signInputTable2[Y] == '*')
    1e08:	29 91       	ld	r18, Y+
    1e0a:	2a 32       	cpi	r18, 0x2A	; 42
    1e0c:	59 f4       	brne	.+22     	; 0x1e24 <Parser1+0x11a>
		{
// DOES THE FIRST CHARACTER MATCH THE FIRST LETTER OF THE PHONEME
			if (signInputTable1[Y] == sign1)
    1e0e:	b0 80       	ld	r11, Z
    1e10:	b1 12       	cpse	r11, r17
    1e12:	08 c0       	rjmp	.+16     	; 0x1e24 <Parser1+0x11a>
			{
                // SAVE THE POSITION AND MOVE AHEAD
				phonemeIndex[position] = Y;
    1e14:	e0 2f       	mov	r30, r16
    1e16:	f0 e0       	ldi	r31, 0x00	; 0
    1e18:	e9 5e       	subi	r30, 0xE9	; 233
    1e1a:	f9 4f       	sbci	r31, 0xF9	; 249
    1e1c:	90 83       	st	Z, r25
				
				// ADVANCE THE POINTER
				position++;
    1e1e:	0f 5f       	subi	r16, 0xFF	; 255
			// REACHED END OF PHONEMES, SO EXIT
			return 1;       //all ok
		}
		
		// GET THE NEXT CHARACTER FROM THE BUFFER
		X++;
    1e20:	bf 2c       	mov	r11, r15
				
				// ADVANCE THE POINTER
				position++;
				
				// CONTINUE THROUGH THE LOOP
				continue;
    1e22:	aa cf       	rjmp	.-172    	; 0x1d78 <Parser1+0x6e>
    1e24:	31 96       	adiw	r30, 0x01	; 1
			}
		}
		Y++;
		if (Y != 81) goto pos41134; //81 is size of PHONEME NAME table
    1e26:	e6 17       	cp	r30, r22
    1e28:	f7 07       	cpc	r31, r23
    1e2a:	61 f7       	brne	.-40     	; 0x1e04 <Parser1+0xfa>

        // SET INDEX TO POSITION 8 (END OF STRESS TABLE)
		Y = 8;
		
       // WALK BACK THROUGH TABLE LOOKING FOR A MATCH
		while( (sign1 != pgm_read_byte(&(stressInputTable[Y]))) && (Y>0))
    1e2c:	f3 01       	movw	r30, r6
    1e2e:	94 91       	lpm	r25, Z
    1e30:	19 17       	cp	r17, r25
    1e32:	d1 f0       	breq	.+52     	; 0x1e68 <Parser1+0x15e>
    1e34:	9c 2d       	mov	r25, r12
    1e36:	01 c0       	rjmp	.+2      	; 0x1e3a <Parser1+0x130>
    1e38:	92 2f       	mov	r25, r18
    1e3a:	e9 2f       	mov	r30, r25
    1e3c:	f0 e0       	ldi	r31, 0x00	; 0
    1e3e:	e6 51       	subi	r30, 0x16	; 22
    1e40:	f3 4f       	sbci	r31, 0xF3	; 243
    1e42:	e4 91       	lpm	r30, Z
    1e44:	1e 17       	cp	r17, r30
    1e46:	29 f0       	breq	.+10     	; 0x1e52 <Parser1+0x148>
    1e48:	2f ef       	ldi	r18, 0xFF	; 255
    1e4a:	29 0f       	add	r18, r25
    1e4c:	2f 3f       	cpi	r18, 0xFF	; 255
    1e4e:	a1 f7       	brne	.-24     	; 0x1e38 <Parser1+0x12e>
    1e50:	13 c0       	rjmp	.+38     	; 0x1e78 <Parser1+0x16e>
  // DECREMENT INDEX
			Y--;
		}

        // REACHED THE END OF THE SEARCH WITHOUT BREAKING OUT OF LOOP?
		if (Y == 0)
    1e52:	91 11       	cpse	r25, r1
    1e54:	0a c0       	rjmp	.+20     	; 0x1e6a <Parser1+0x160>
    1e56:	90 93 d8 04 	sts	0x04D8, r25	; 0x8004d8 <Y>
    1e5a:	80 93 d6 03 	sts	0x03D6, r24	; 0x8003d6 <A>
    1e5e:	f0 92 93 08 	sts	0x0893, r15	; 0x800893 <X>
		{
			//mem[39444] = X;
			//41181: JSR 42043 //Error
           // FAILED TO MATCH ANYTHING, RETURN 0 ON FAILURE
			return 0;
    1e62:	80 e0       	ldi	r24, 0x00	; 0
    1e64:	90 e0       	ldi	r25, 0x00	; 0
    1e66:	10 c0       	rjmp	.+32     	; 0x1e88 <Parser1+0x17e>

        // SET INDEX TO POSITION 8 (END OF STRESS TABLE)
		Y = 8;
		
       // WALK BACK THROUGH TABLE LOOKING FOR A MATCH
		while( (sign1 != pgm_read_byte(&(stressInputTable[Y]))) && (Y>0))
    1e68:	99 2d       	mov	r25, r9
			//41181: JSR 42043 //Error
           // FAILED TO MATCH ANYTHING, RETURN 0 ON FAILURE
			return 0;
		}
// SET THE STRESS FOR THE PRIOR PHONEME
		stress[position-1] = Y;
    1e6a:	e0 2f       	mov	r30, r16
    1e6c:	f0 e0       	ldi	r31, 0x00	; 0
    1e6e:	e7 52       	subi	r30, 0x27	; 39
    1e70:	fb 4f       	sbci	r31, 0xFB	; 251
    1e72:	90 83       	st	Z, r25
			// REACHED END OF PHONEMES, SO EXIT
			return 1;       //all ok
		}
		
		// GET THE NEXT CHARACTER FROM THE BUFFER
		X++;
    1e74:	bf 2c       	mov	r11, r15
    1e76:	80 cf       	rjmp	.-256    	; 0x1d78 <Parser1+0x6e>
    1e78:	90 93 d8 04 	sts	0x04D8, r25	; 0x8004d8 <Y>
    1e7c:	80 93 d6 03 	sts	0x03D6, r24	; 0x8003d6 <A>
    1e80:	f0 92 93 08 	sts	0x0893, r15	; 0x800893 <X>
		if (Y == 0)
		{
			//mem[39444] = X;
			//41181: JSR 42043 //Error
           // FAILED TO MATCH ANYTHING, RETURN 0 ON FAILURE
			return 0;
    1e84:	80 e0       	ldi	r24, 0x00	; 0
    1e86:	90 e0       	ldi	r25, 0x00	; 0
		}
// SET THE STRESS FOR THE PRIOR PHONEME
		stress[position-1] = Y;
	} //while
}
    1e88:	df 91       	pop	r29
    1e8a:	cf 91       	pop	r28
    1e8c:	1f 91       	pop	r17
    1e8e:	0f 91       	pop	r16
    1e90:	ff 90       	pop	r15
    1e92:	ef 90       	pop	r14
    1e94:	df 90       	pop	r13
    1e96:	cf 90       	pop	r12
    1e98:	bf 90       	pop	r11
    1e9a:	af 90       	pop	r10
    1e9c:	9f 90       	pop	r9
    1e9e:	7f 90       	pop	r7
    1ea0:	6f 90       	pop	r6
    1ea2:	08 95       	ret

00001ea4 <SetPhonemeLength>:


//change phonemelength depedendent on stress
//void Code41203()
void SetPhonemeLength()
{
    1ea4:	cf 93       	push	r28
    1ea6:	df 93       	push	r29
	unsigned char A;
	int position = 0;
	while(phonemeIndex[position] != 255 )
    1ea8:	30 91 17 06 	lds	r19, 0x0617	; 0x800617 <phonemeIndex>
    1eac:	3f 3f       	cpi	r19, 0xFF	; 255
    1eae:	e1 f0       	breq	.+56     	; 0x1ee8 <SetPhonemeLength+0x44>
    1eb0:	8a ed       	ldi	r24, 0xDA	; 218
    1eb2:	94 e0       	ldi	r25, 0x04	; 4
    1eb4:	c8 e1       	ldi	r28, 0x18	; 24
    1eb6:	d6 e0       	ldi	r29, 0x06	; 6
    1eb8:	a9 e1       	ldi	r26, 0x19	; 25
    1eba:	b7 e0       	ldi	r27, 0x07	; 7
	{
		A = stress[position];
    1ebc:	fc 01       	movw	r30, r24
    1ebe:	21 91       	ld	r18, Z+
    1ec0:	cf 01       	movw	r24, r30
		//41218: BMI 41229
		if ((A == 0) || ((A&128) != 0))
    1ec2:	12 16       	cp	r1, r18
    1ec4:	3c f0       	brlt	.+14     	; 0x1ed4 <SetPhonemeLength+0x30>
		{
			phonemeLength[position] = pgm_read_byte(&(phonemeLengthTable[phonemeIndex[position]]));
    1ec6:	e3 2f       	mov	r30, r19
    1ec8:	f0 e0       	ldi	r31, 0x00	; 0
    1eca:	e7 5f       	subi	r30, 0xF7	; 247
    1ecc:	f4 4f       	sbci	r31, 0xF4	; 244
    1ece:	e4 91       	lpm	r30, Z
    1ed0:	ec 93       	st	X, r30
    1ed2:	06 c0       	rjmp	.+12     	; 0x1ee0 <SetPhonemeLength+0x3c>
		}
		else
		{
			phonemeLength[position] = pgm_read_byte(&(phonemeStressedLengthTable[phonemeIndex[position]]));
    1ed4:	e3 2f       	mov	r30, r19
    1ed6:	f0 e0       	ldi	r31, 0x00	; 0
    1ed8:	e7 5a       	subi	r30, 0xA7	; 167
    1eda:	f4 4f       	sbci	r31, 0xF4	; 244
    1edc:	e4 91       	lpm	r30, Z
    1ede:	ec 93       	st	X, r30
//void Code41203()
void SetPhonemeLength()
{
	unsigned char A;
	int position = 0;
	while(phonemeIndex[position] != 255 )
    1ee0:	39 91       	ld	r19, Y+
    1ee2:	11 96       	adiw	r26, 0x01	; 1
    1ee4:	3f 3f       	cpi	r19, 0xFF	; 255
    1ee6:	51 f7       	brne	.-44     	; 0x1ebc <SetPhonemeLength+0x18>
		{
			phonemeLength[position] = pgm_read_byte(&(phonemeStressedLengthTable[phonemeIndex[position]]));
		}
		position++;
	}
}
    1ee8:	df 91       	pop	r29
    1eea:	cf 91       	pop	r28
    1eec:	08 95       	ret

00001eee <Code41240>:


void Code41240()
{
    1eee:	ef 92       	push	r14
    1ef0:	ff 92       	push	r15
    1ef2:	0f 93       	push	r16
    1ef4:	1f 93       	push	r17
    1ef6:	cf 93       	push	r28
    1ef8:	df 93       	push	r29
	unsigned char pos=0;
    1efa:	c0 e0       	ldi	r28, 0x00	; 0

	while(phonemeIndex[pos] != 255)
    1efc:	69 c0       	rjmp	.+210    	; 0x1fd0 <Code41240+0xe2>
	{
		unsigned char index; //register AC
		X = pos;
    1efe:	c0 93 93 08 	sts	0x0893, r28	; 0x800893 <X>
		index = phonemeIndex[pos];
		if ((pgm_read_byte(&(flags[index]))&2) == 0)
    1f02:	0d 2f       	mov	r16, r29
    1f04:	10 e0       	ldi	r17, 0x00	; 0
    1f06:	f8 01       	movw	r30, r16
    1f08:	e9 50       	subi	r30, 0x09	; 9
    1f0a:	f4 4f       	sbci	r31, 0xF4	; 244
    1f0c:	e4 91       	lpm	r30, Z
    1f0e:	e1 fd       	sbrc	r30, 1
    1f10:	02 c0       	rjmp	.+4      	; 0x1f16 <Code41240+0x28>
		{
			pos++;
    1f12:	cf 5f       	subi	r28, 0xFF	; 255
			continue;
    1f14:	5d c0       	rjmp	.+186    	; 0x1fd0 <Code41240+0xe2>
		}
		else if ((flags[index]&1) == 0)
    1f16:	f8 01       	movw	r30, r16
    1f18:	e9 50       	subi	r30, 0x09	; 9
    1f1a:	f4 4f       	sbci	r31, 0xF4	; 244
    1f1c:	80 81       	ld	r24, Z
    1f1e:	80 fd       	sbrc	r24, 0
    1f20:	1c c0       	rjmp	.+56     	; 0x1f5a <Code41240+0x6c>
		{
			Insert(pos+1, index+1, pgm_read_byte(&(phonemeLengthTable[index+1])), stress[pos]);
    1f22:	f8 01       	movw	r30, r16
    1f24:	e6 5f       	subi	r30, 0xF6	; 246
    1f26:	f4 4f       	sbci	r31, 0xF4	; 244
    1f28:	44 91       	lpm	r20, Z
    1f2a:	9b 01       	movw	r18, r22
    1f2c:	26 52       	subi	r18, 0x26	; 38
    1f2e:	3b 4f       	sbci	r19, 0xFB	; 251
    1f30:	79 01       	movw	r14, r18
    1f32:	61 e0       	ldi	r22, 0x01	; 1
    1f34:	6d 0f       	add	r22, r29
    1f36:	f9 01       	movw	r30, r18
    1f38:	20 81       	ld	r18, Z
    1f3a:	81 e0       	ldi	r24, 0x01	; 1
    1f3c:	8c 0f       	add	r24, r28
    1f3e:	39 de       	rcall	.-910    	; 0x1bb2 <Insert>
			Insert(pos+2, index+2, pgm_read_byte(&(phonemeLengthTable[index+2])), stress[pos]);
    1f40:	f8 01       	movw	r30, r16
    1f42:	e5 5f       	subi	r30, 0xF5	; 245
    1f44:	f4 4f       	sbci	r31, 0xF4	; 244
    1f46:	44 91       	lpm	r20, Z
    1f48:	62 e0       	ldi	r22, 0x02	; 2
    1f4a:	6d 0f       	add	r22, r29
    1f4c:	f7 01       	movw	r30, r14
    1f4e:	20 81       	ld	r18, Z
    1f50:	82 e0       	ldi	r24, 0x02	; 2
    1f52:	8c 0f       	add	r24, r28
    1f54:	2e de       	rcall	.-932    	; 0x1bb2 <Insert>
			pos += 3;
    1f56:	cd 5f       	subi	r28, 0xFD	; 253
			continue;
    1f58:	3b c0       	rjmp	.+118    	; 0x1fd0 <Code41240+0xe2>
    1f5a:	81 e0       	ldi	r24, 0x01	; 1
    1f5c:	8c 0f       	add	r24, r28
		if ((pgm_read_byte(&(flags[index]))&2) == 0)
		{
			pos++;
			continue;
		}
		else if ((flags[index]&1) == 0)
    1f5e:	98 2f       	mov	r25, r24
    1f60:	01 c0       	rjmp	.+2      	; 0x1f64 <Code41240+0x76>
    1f62:	93 2f       	mov	r25, r19
		}

		do
		{
			X++;
			A = phonemeIndex[X];
    1f64:	a9 2f       	mov	r26, r25
    1f66:	b0 e0       	ldi	r27, 0x00	; 0
    1f68:	a9 5e       	subi	r26, 0xE9	; 233
    1f6a:	b9 4f       	sbci	r27, 0xF9	; 249
    1f6c:	2c 91       	ld	r18, X
    1f6e:	31 e0       	ldi	r19, 0x01	; 1
    1f70:	39 0f       	add	r19, r25
		} while(A==0);
    1f72:	22 23       	and	r18, r18
    1f74:	b1 f3       	breq	.-20     	; 0x1f62 <Code41240+0x74>
    1f76:	90 93 93 08 	sts	0x0893, r25	; 0x800893 <X>
    1f7a:	20 93 d6 03 	sts	0x03D6, r18	; 0x8003d6 <A>

		if (A != 255)
    1f7e:	2f 3f       	cpi	r18, 0xFF	; 255
    1f80:	51 f0       	breq	.+20     	; 0x1f96 <Code41240+0xa8>
		{
			if ((flags[A] & 8) != 0)    {pos++; continue;}
    1f82:	e2 2f       	mov	r30, r18
    1f84:	f0 e0       	ldi	r31, 0x00	; 0
    1f86:	e9 50       	subi	r30, 0x09	; 9
    1f88:	f4 4f       	sbci	r31, 0xF4	; 244
    1f8a:	90 81       	ld	r25, Z
    1f8c:	93 fd       	sbrc	r25, 3
    1f8e:	1d c0       	rjmp	.+58     	; 0x1fca <Code41240+0xdc>
			if ((A == 36) || (A == 37)) {pos++; continue;} // '/H' '/X'
    1f90:	24 52       	subi	r18, 0x24	; 36
    1f92:	22 30       	cpi	r18, 0x02	; 2
    1f94:	e0 f0       	brcs	.+56     	; 0x1fce <Code41240+0xe0>
		}

		Insert(pos+1, index+1, pgm_read_byte(&(phonemeLengthTable[index+1])), stress[pos]);
    1f96:	f8 01       	movw	r30, r16
    1f98:	e6 5f       	subi	r30, 0xF6	; 246
    1f9a:	f4 4f       	sbci	r31, 0xF4	; 244
    1f9c:	44 91       	lpm	r20, Z
    1f9e:	9b 01       	movw	r18, r22
    1fa0:	26 52       	subi	r18, 0x26	; 38
    1fa2:	3b 4f       	sbci	r19, 0xFB	; 251
    1fa4:	79 01       	movw	r14, r18
    1fa6:	61 e0       	ldi	r22, 0x01	; 1
    1fa8:	6d 0f       	add	r22, r29
    1faa:	f9 01       	movw	r30, r18
    1fac:	20 81       	ld	r18, Z
    1fae:	01 de       	rcall	.-1022   	; 0x1bb2 <Insert>
		Insert(pos+2, index+2, pgm_read_byte(&(phonemeLengthTable[index+2])), stress[pos]);
    1fb0:	f8 01       	movw	r30, r16
    1fb2:	e5 5f       	subi	r30, 0xF5	; 245
    1fb4:	f4 4f       	sbci	r31, 0xF4	; 244
    1fb6:	44 91       	lpm	r20, Z
    1fb8:	62 e0       	ldi	r22, 0x02	; 2
    1fba:	6d 0f       	add	r22, r29
    1fbc:	f7 01       	movw	r30, r14
    1fbe:	20 81       	ld	r18, Z
    1fc0:	82 e0       	ldi	r24, 0x02	; 2
    1fc2:	8c 0f       	add	r24, r28
    1fc4:	f6 dd       	rcall	.-1044   	; 0x1bb2 <Insert>
		pos += 3;
    1fc6:	cd 5f       	subi	r28, 0xFD	; 253
    1fc8:	03 c0       	rjmp	.+6      	; 0x1fd0 <Code41240+0xe2>
			A = phonemeIndex[X];
		} while(A==0);

		if (A != 255)
		{
			if ((flags[A] & 8) != 0)    {pos++; continue;}
    1fca:	c8 2f       	mov	r28, r24
    1fcc:	01 c0       	rjmp	.+2      	; 0x1fd0 <Code41240+0xe2>
			if ((A == 36) || (A == 37)) {pos++; continue;} // '/H' '/X'
    1fce:	c8 2f       	mov	r28, r24

void Code41240()
{
	unsigned char pos=0;

	while(phonemeIndex[pos] != 255)
    1fd0:	6c 2f       	mov	r22, r28
    1fd2:	70 e0       	ldi	r23, 0x00	; 0
    1fd4:	fb 01       	movw	r30, r22
    1fd6:	e9 5e       	subi	r30, 0xE9	; 233
    1fd8:	f9 4f       	sbci	r31, 0xF9	; 249
    1fda:	d0 81       	ld	r29, Z
    1fdc:	df 3f       	cpi	r29, 0xFF	; 255
    1fde:	09 f0       	breq	.+2      	; 0x1fe2 <Code41240+0xf4>
    1fe0:	8e cf       	rjmp	.-228    	; 0x1efe <Code41240+0x10>
		Insert(pos+1, index+1, pgm_read_byte(&(phonemeLengthTable[index+1])), stress[pos]);
		Insert(pos+2, index+2, pgm_read_byte(&(phonemeLengthTable[index+2])), stress[pos]);
		pos += 3;
	};

}
    1fe2:	df 91       	pop	r29
    1fe4:	cf 91       	pop	r28
    1fe6:	1f 91       	pop	r17
    1fe8:	0f 91       	pop	r16
    1fea:	ff 90       	pop	r15
    1fec:	ef 90       	pop	r14
    1fee:	08 95       	ret

00001ff0 <Parser2>:
//       <UNSTRESSED VOWEL> D <PAUSE>  -> <UNSTRESSED VOWEL> DX <PAUSE>


//void Code41397()
void Parser2()
{
    1ff0:	3f 92       	push	r3
    1ff2:	4f 92       	push	r4
    1ff4:	5f 92       	push	r5
    1ff6:	6f 92       	push	r6
    1ff8:	7f 92       	push	r7
    1ffa:	8f 92       	push	r8
    1ffc:	9f 92       	push	r9
    1ffe:	af 92       	push	r10
    2000:	bf 92       	push	r11
    2002:	cf 92       	push	r12
    2004:	df 92       	push	r13
    2006:	ef 92       	push	r14
    2008:	ff 92       	push	r15
    200a:	0f 93       	push	r16
    200c:	1f 93       	push	r17
    200e:	cf 93       	push	r28
    2010:	df 93       	push	r29
	#if DEBUG_LOG
	printf("Parser2\n");
	#endif
	unsigned char pos = 0; //mem66;
    2012:	c0 e0       	ldi	r28, 0x00	; 0
// Is next phoneme a vowel or ER?
				A = flags[A] & 128;
			#if DEBUG_LOG
			if (A != 0) printf("RULE: Soften T or D following vowel or ER and preceding a pause -> DX\n");
			#endif
			if (A != 0) phonemeIndex[pos] = 30;  // 'DX'
    2014:	0f 2e       	mov	r0, r31
    2016:	fe e1       	ldi	r31, 0x1E	; 30
    2018:	8f 2e       	mov	r8, r31
    201a:	f0 2d       	mov	r31, r0
// If not set, continue processing next phoneme
			if (A == 0) {pos++; continue;}
			#if DEBUG_LOG
			printf("RULE: <ALVEOLAR> UW -> <ALVEOLAR> UX\n");
			#endif
			phonemeIndex[X] = 16;
    201c:	68 94       	set
    201e:	cc 24       	eor	r12, r12
    2020:	c4 f8       	bld	r12, 4
			if ((flags[index] & 32) != 0) {pos++; continue;}
// replace G with GX and continue processing next phoneme
			#if DEBUG_LOG
			printf("RULE: G <VOWEL OR DIPHTONG NOT ENDING WITH IY> -> GX <VOWEL OR DIPHTONG NOT ENDING WITH IY>\n");
			#endif
			phonemeIndex[pos] = 63; // 'GX'
    2022:	0f 2e       	mov	r0, r31
    2024:	ff e3       	ldi	r31, 0x3F	; 63
    2026:	4f 2e       	mov	r4, r31
    2028:	f0 2d       	mov	r31, r0
				A = flags[Y] & 32;
				#if DEBUG_LOG
				if (A==0) printf("RULE: K <VOWEL OR DIPHTONG NOT ENDING WITH IY> -> KX <VOWEL OR DIPHTONG NOT ENDING WITH IY>\n");
				#endif
// Replace with KX
				if (A == 0) phonemeIndex[pos] = 75;  // 'KX'
    202a:	0f 2e       	mov	r0, r31
    202c:	fb e4       	ldi	r31, 0x4B	; 75
    202e:	9f 2e       	mov	r9, r31
    2030:	f0 2d       	mov	r31, r0
			if (phonemeIndex[pos-1] != 60) {pos++; continue;}
// Replace S with Z and move on
			#if DEBUG_LOG
			printf("RULE: G S -> G Z\n");
			#endif
			phonemeIndex[pos] = 38;    // 'Z'
    2032:	0f 2e       	mov	r0, r31
    2034:	f6 e2       	ldi	r31, 0x26	; 38
    2036:	5f 2e       	mov	r5, r31
    2038:	f0 2d       	mov	r31, r0
			if ((flags[phonemeIndex[pos-1]] & 128) == 0) {pos++; continue;}
// Prior phoneme has VOWEL flag set, so change L to LX and move to next phoneme
			#if DEBUG_LOG
			printf("RULE: <VOWEL> L -> <VOWEL> LX\n");
			#endif
			phonemeIndex[X] = 19;     // 'LX'
    203a:	0f 2e       	mov	r0, r31
    203c:	f3 e1       	ldi	r31, 0x13	; 19
    203e:	6f 2e       	mov	r6, r31
    2040:	f0 2d       	mov	r31, r0
// If vowel flag is set change R to RX
		A = flags[A] & 128;
		#if DEBUG_LOG
		printf("RULE: R -> RX\n");
		#endif
		if (A != 0) phonemeIndex[pos] = 18;  // 'RX'
    2042:	0f 2e       	mov	r0, r31
    2044:	f2 e1       	ldi	r31, 0x12	; 18
    2046:	af 2e       	mov	r10, r31
    2048:	f0 2d       	mov	r31, r0

// Prior phonemes D?
		if (A == 57)                    // 'D'
		{
// Change D to J
			phonemeIndex[pos-1] = 44;
    204a:	0f 2e       	mov	r0, r31
    204c:	fc e2       	ldi	r31, 0x2C	; 44
    204e:	7f 2e       	mov	r7, r31
    2050:	f0 2d       	mov	r31, r0
		{
// Change T to CH
			#if DEBUG_LOG
			printf("RULE: T R -> CH R\n");
			#endif
			phonemeIndex[pos-1] = 42;
    2052:	0f 2e       	mov	r0, r31
    2054:	fa e2       	ldi	r31, 0x2A	; 42
    2056:	bf 2e       	mov	r11, r31
    2058:	f0 2d       	mov	r31, r0
         
// Skip rule if phoneme != UN
		if (A != 80) goto pos41503; // 'UN'
		
		// Jump up to branch - replaces current phoneme with AX and continues
		A = 28;         // 'N' //change UN to 'AX N'
    205a:	0f 2e       	mov	r0, r31
    205c:	fc e1       	ldi	r31, 0x1C	; 28
    205e:	df 2e       	mov	r13, r31
    2060:	f0 2d       	mov	r31, r0
// Example: ASTRONOMY
         
// Skip rule if phoneme != UM
		if (A != 79) goto pos41495;   // 'UM'
		// Jump up to branch - replaces current phoneme with AX and continues
		A = 27; // 'M'  //change 'UM' to  'AX M'
    2062:	0f 2e       	mov	r0, r31
    2064:	fb e1       	ldi	r31, 0x1B	; 27
    2066:	ef 2e       	mov	r14, r31
    2068:	f0 2d       	mov	r31, r0
pos41466:
// Get current phoneme stress
		mem58 = stress[X];
		
// Change UL to AX
		phonemeIndex[X] = 13;  // 'AX'
    206a:	dd e0       	ldi	r29, 0x0D	; 13
       
// Get phoneme
		A = phonemeIndex[X];
// Skip this rule if phoneme is not UL
		if (A != 78) goto pos41487;  // 'UL'
		A = 24;         // 'L'                 //change 'UL' to 'AX L'
    206c:	0f 2e       	mov	r0, r31
    206e:	f8 e1       	ldi	r31, 0x18	; 24
    2070:	ff 2e       	mov	r15, r31
    2072:	f0 2d       	mov	r31, r0

  // Loop through phonemes
	while(1)
	{
// SET X TO THE CURRENT POSITION
		X = pos;
    2074:	c0 93 93 08 	sts	0x0893, r28	; 0x800893 <X>
// GET THE PHONEME AT THE CURRENT POSITION
		A = phonemeIndex[pos];
    2078:	0c 2f       	mov	r16, r28
    207a:	10 e0       	ldi	r17, 0x00	; 0
    207c:	f8 01       	movw	r30, r16
    207e:	e9 5e       	subi	r30, 0xE9	; 233
    2080:	f9 4f       	sbci	r31, 0xF9	; 249
    2082:	90 81       	ld	r25, Z
    2084:	90 93 d6 03 	sts	0x03D6, r25	; 0x8003d6 <A>
#if DEBUG_LOG
		if (A != 255) printf("%d: %c%c\n", X, signInputTable1[A], signInputTable2[A]);
#endif

// Is phoneme pause?
		if (A == 0)
    2088:	91 11       	cpse	r25, r1
    208a:	02 c0       	rjmp	.+4      	; 0x2090 <Parser2+0xa0>
		{
// Move ahead to the 
			pos++;
    208c:	cf 5f       	subi	r28, 0xFF	; 255
			continue;
    208e:	f2 cf       	rjmp	.-28     	; 0x2074 <Parser2+0x84>
		}
		
// If end of phonemes flag reached, exit routine
		if (A == 255) return;
    2090:	9f 3f       	cpi	r25, 0xFF	; 255
    2092:	09 f4       	brne	.+2      	; 0x2096 <Parser2+0xa6>
    2094:	a0 c1       	rjmp	.+832    	; 0x23d6 <Parser2+0x3e6>
		
// Copy the current phoneme index to Y
		Y = A;
    2096:	90 93 d8 04 	sts	0x04D8, r25	; 0x8004d8 <Y>
//       <DIPHTONG NOT ENDING WITH WX> -> <DIPHTONG NOT ENDING WITH WX> YX
// Example: OIL, COW


// Check for DIPHTONG
		if ((pgm_read_byte(&(flags[A])) & 16) == 0) goto pos41457;
    209a:	49 2f       	mov	r20, r25
    209c:	50 e0       	ldi	r21, 0x00	; 0
    209e:	fa 01       	movw	r30, r20
    20a0:	e9 50       	subi	r30, 0x09	; 9
    20a2:	f4 4f       	sbci	r31, 0xF4	; 244
    20a4:	e4 91       	lpm	r30, Z
    20a6:	e4 ff       	sbrs	r30, 4
    20a8:	1b c0       	rjmp	.+54     	; 0x20e0 <Parser2+0xf0>

// Not a diphthong. Get the stress
		mem58 = stress[pos];
    20aa:	f8 01       	movw	r30, r16
    20ac:	e6 52       	subi	r30, 0x26	; 38
    20ae:	fb 4f       	sbci	r31, 0xFB	; 251
    20b0:	20 81       	ld	r18, Z
		
// End in IY sound?
		A = flags[Y] & 32;
    20b2:	fa 01       	movw	r30, r20
    20b4:	e9 50       	subi	r30, 0x09	; 9
    20b6:	f4 4f       	sbci	r31, 0xF4	; 244
    20b8:	80 81       	ld	r24, Z
		
// If ends with IY, use YX, else use WX
		if (A == 0) A = 20; else A = 21;    // 'WX' = 20 'YX' = 21
    20ba:	85 fd       	sbrc	r24, 5
    20bc:	04 c0       	rjmp	.+8      	; 0x20c6 <Parser2+0xd6>
    20be:	84 e1       	ldi	r24, 0x14	; 20
    20c0:	80 93 d6 03 	sts	0x03D6, r24	; 0x8003d6 <A>
    20c4:	03 c0       	rjmp	.+6      	; 0x20cc <Parser2+0xdc>
    20c6:	85 e1       	ldi	r24, 0x15	; 21
    20c8:	80 93 d6 03 	sts	0x03D6, r24	; 0x8003d6 <A>
		#if DEBUG_LOG
		if (A==20) printf("RULE: insert WX following diphtong NOT ending in IY sound\n");
		if (A==21) printf("RULE: insert YX following diphtong ending in IY sound\n");
		#endif

		Insert(pos+1, A, mem59, mem58);
    20cc:	40 91 41 02 	lds	r20, 0x0241	; 0x800241 <mem59>
    20d0:	60 91 d6 03 	lds	r22, 0x03D6	; 0x8003d6 <A>
    20d4:	81 e0       	ldi	r24, 0x01	; 1
    20d6:	8c 0f       	add	r24, r28
    20d8:	6c dd       	rcall	.-1320   	; 0x1bb2 <Insert>
		X = pos;
    20da:	c0 93 93 08 	sts	0x0893, r28	; 0x800893 <X>
// Jump to ???
		goto pos41749;
    20de:	f2 c0       	rjmp	.+484    	; 0x22c4 <Parser2+0x2d4>
// Example: MEDDLE
       
// Get phoneme
		A = phonemeIndex[X];
// Skip this rule if phoneme is not UL
		if (A != 78) goto pos41487;  // 'UL'
    20e0:	9e 34       	cpi	r25, 0x4E	; 78
    20e2:	91 f4       	brne	.+36     	; 0x2108 <Parser2+0x118>
		A = 24;         // 'L'                 //change 'UL' to 'AX L'
    20e4:	f0 92 d6 03 	sts	0x03D6, r15	; 0x8003d6 <A>
		printf("RULE: UL -> AX L\n");
		#endif

pos41466:
// Get current phoneme stress
		mem58 = stress[X];
    20e8:	f8 01       	movw	r30, r16
    20ea:	e6 52       	subi	r30, 0x26	; 38
    20ec:	fb 4f       	sbci	r31, 0xFB	; 251
    20ee:	20 81       	ld	r18, Z
		
// Change UL to AX
		phonemeIndex[X] = 13;  // 'AX'
    20f0:	f8 01       	movw	r30, r16
    20f2:	e9 5e       	subi	r30, 0xE9	; 233
    20f4:	f9 4f       	sbci	r31, 0xF9	; 249
    20f6:	d0 83       	st	Z, r29
// Perform insert. Note code below may jump up here with different values
		Insert(X+1, A, mem59, mem58);
    20f8:	cf 5f       	subi	r28, 0xFF	; 255
    20fa:	40 91 41 02 	lds	r20, 0x0241	; 0x800241 <mem59>
    20fe:	60 91 d6 03 	lds	r22, 0x03D6	; 0x8003d6 <A>
    2102:	8c 2f       	mov	r24, r28
    2104:	56 dd       	rcall	.-1364   	; 0x1bb2 <Insert>
		pos++;
// Move to next phoneme
		continue;
    2106:	b6 cf       	rjmp	.-148    	; 0x2074 <Parser2+0x84>
// RULE:
//       UM -> AX M
// Example: ASTRONOMY
         
// Skip rule if phoneme != UM
		if (A != 79) goto pos41495;   // 'UM'
    2108:	9f 34       	cpi	r25, 0x4F	; 79
    210a:	19 f4       	brne	.+6      	; 0x2112 <Parser2+0x122>
		// Jump up to branch - replaces current phoneme with AX and continues
		A = 27; // 'M'  //change 'UM' to  'AX M'
    210c:	e0 92 d6 03 	sts	0x03D6, r14	; 0x8003d6 <A>
		#if DEBUG_LOG
		printf("RULE: UM -> AX M\n");
		#endif
		goto pos41466;
    2110:	eb cf       	rjmp	.-42     	; 0x20e8 <Parser2+0xf8>
//       UN -> AX N
// Example: FUNCTION

         
// Skip rule if phoneme != UN
		if (A != 80) goto pos41503; // 'UN'
    2112:	90 35       	cpi	r25, 0x50	; 80
    2114:	19 f4       	brne	.+6      	; 0x211c <Parser2+0x12c>
		
		// Jump up to branch - replaces current phoneme with AX and continues
		A = 28;         // 'N' //change UN to 'AX N'
    2116:	d0 92 d6 03 	sts	0x03D6, r13	; 0x8003d6 <A>
		#if DEBUG_LOG
		printf("RULE: UN -> AX N\n");
		#endif
		goto pos41466;
    211a:	e6 cf       	rjmp	.-52     	; 0x20e8 <Parser2+0xf8>
//       <STRESSED VOWEL> <SILENCE> <STRESSED VOWEL> -> <STRESSED VOWEL> <SILENCE> Q <VOWEL>
// EXAMPLE: AWAY EIGHT
         
		Y = A;
// VOWEL set?
		A = flags[A] & 128;
    211c:	fa 01       	movw	r30, r20
    211e:	e9 50       	subi	r30, 0x09	; 9
    2120:	f4 4f       	sbci	r31, 0xF4	; 244
    2122:	80 81       	ld	r24, Z

// Skip if not a vowel
		if (A != 0)
    2124:	88 23       	and	r24, r24
    2126:	9c f5       	brge	.+102    	; 0x218e <Parser2+0x19e>
		{
// Get the stress
			A = stress[X];
    2128:	f8 01       	movw	r30, r16
    212a:	e6 52       	subi	r30, 0x26	; 38
    212c:	fb 4f       	sbci	r31, 0xFB	; 251
    212e:	80 81       	ld	r24, Z

// If stressed...
			if (A != 0)
    2130:	88 23       	and	r24, r24
    2132:	69 f1       	breq	.+90     	; 0x218e <Parser2+0x19e>
			{
// Get the following phoneme
				X++;
    2134:	33 24       	eor	r3, r3
    2136:	33 94       	inc	r3
    2138:	3c 0e       	add	r3, r28
				A = phonemeIndex[X];
    213a:	e3 2d       	mov	r30, r3
    213c:	f0 e0       	ldi	r31, 0x00	; 0
    213e:	e9 5e       	subi	r30, 0xE9	; 233
    2140:	f9 4f       	sbci	r31, 0xF9	; 249
    2142:	80 81       	ld	r24, Z
// If following phoneme is a pause

				if (A == 0)
    2144:	81 11       	cpse	r24, r1
    2146:	23 c0       	rjmp	.+70     	; 0x218e <Parser2+0x19e>
				{
// Get the phoneme following pause
					X++;
    2148:	82 e0       	ldi	r24, 0x02	; 2
    214a:	8c 0f       	add	r24, r28
    214c:	80 93 93 08 	sts	0x0893, r24	; 0x800893 <X>
					Y = phonemeIndex[X];
    2150:	28 2f       	mov	r18, r24
    2152:	30 e0       	ldi	r19, 0x00	; 0
    2154:	f9 01       	movw	r30, r18
    2156:	e9 5e       	subi	r30, 0xE9	; 233
    2158:	f9 4f       	sbci	r31, 0xF9	; 249
    215a:	e0 81       	ld	r30, Z
    215c:	e0 93 d8 04 	sts	0x04D8, r30	; 0x8004d8 <Y>

// Check for end of buffer flag
					if (Y == 255) //buffer overflow
    2160:	ef 3f       	cpi	r30, 0xFF	; 255
    2162:	a9 f0       	breq	.+42     	; 0x218e <Parser2+0x19e>
// ??? Not sure about these flags
     					A = 65&128;
					else
// And VOWEL flag to current phoneme's flags
     					A = flags[Y] & 128;
    2164:	f0 e0       	ldi	r31, 0x00	; 0
    2166:	e9 50       	subi	r30, 0x09	; 9
    2168:	f4 4f       	sbci	r31, 0xF4	; 244
    216a:	40 81       	ld	r20, Z

// If following phonemes is not a pause
					if (A != 0)
    216c:	44 23       	and	r20, r20
    216e:	7c f4       	brge	.+30     	; 0x218e <Parser2+0x19e>
					{
// If the following phoneme is not stressed
						A = stress[X];
    2170:	f9 01       	movw	r30, r18
    2172:	e6 52       	subi	r30, 0x26	; 38
    2174:	fb 4f       	sbci	r31, 0xFB	; 251
    2176:	20 81       	ld	r18, Z
    2178:	20 93 d6 03 	sts	0x03D6, r18	; 0x8003d6 <A>
						if (A != 0)
    217c:	22 23       	and	r18, r18
    217e:	39 f0       	breq	.+14     	; 0x218e <Parser2+0x19e>
// Insert a glottal stop and move forward
							#if DEBUG_LOG
							printf("RULE: Insert glottal stop between two stressed vowels with space between them\n");
							#endif
							// 31 = 'Q'
							Insert(X, 31, mem59, 0);
    2180:	20 e0       	ldi	r18, 0x00	; 0
    2182:	40 91 41 02 	lds	r20, 0x0241	; 0x800241 <mem59>
    2186:	6f e1       	ldi	r22, 0x1F	; 31
    2188:	14 dd       	rcall	.-1496   	; 0x1bb2 <Insert>
							pos++;
    218a:	c3 2d       	mov	r28, r3
							continue;
    218c:	73 cf       	rjmp	.-282    	; 0x2074 <Parser2+0x84>
//        T R -> CH R
// Example: TRACK


// Get current position and phoneme
		X = pos;
    218e:	c0 93 93 08 	sts	0x0893, r28	; 0x800893 <X>
		A = phonemeIndex[pos];
		if (A != 23) goto pos41611;     // 'R'
    2192:	97 31       	cpi	r25, 0x17	; 23
    2194:	31 f5       	brne	.+76     	; 0x21e2 <Parser2+0x1f2>
		
// Look at prior phoneme
		X--;
    2196:	8f ef       	ldi	r24, 0xFF	; 255
    2198:	8c 0f       	add	r24, r28
    219a:	80 93 93 08 	sts	0x0893, r24	; 0x800893 <X>
		A = phonemeIndex[pos-1];
    219e:	c8 01       	movw	r24, r16
    21a0:	01 97       	sbiw	r24, 0x01	; 1
    21a2:	fc 01       	movw	r30, r24
    21a4:	e9 5e       	subi	r30, 0xE9	; 233
    21a6:	f9 4f       	sbci	r31, 0xF9	; 249
    21a8:	e0 81       	ld	r30, Z
    21aa:	e0 93 d6 03 	sts	0x03D6, r30	; 0x8003d6 <A>
		//pos41567:
		if (A == 69)                    // 'T'
    21ae:	e5 34       	cpi	r30, 0x45	; 69
    21b0:	29 f4       	brne	.+10     	; 0x21bc <Parser2+0x1cc>
		{
// Change T to CH
			#if DEBUG_LOG
			printf("RULE: T R -> CH R\n");
			#endif
			phonemeIndex[pos-1] = 42;
    21b2:	fc 01       	movw	r30, r24
    21b4:	e9 5e       	subi	r30, 0xE9	; 233
    21b6:	f9 4f       	sbci	r31, 0xF9	; 249
    21b8:	b0 82       	st	Z, r11
			goto pos41779;
    21ba:	a3 c0       	rjmp	.+326    	; 0x2302 <Parser2+0x312>
// RULES FOR PHONEMES BEFORE R
//        D R -> J R
// Example: DRY

// Prior phonemes D?
		if (A == 57)                    // 'D'
    21bc:	e9 33       	cpi	r30, 0x39	; 57
    21be:	29 f4       	brne	.+10     	; 0x21ca <Parser2+0x1da>
		{
// Change D to J
			phonemeIndex[pos-1] = 44;
    21c0:	fc 01       	movw	r30, r24
    21c2:	e9 5e       	subi	r30, 0xE9	; 233
    21c4:	f9 4f       	sbci	r31, 0xF9	; 249
    21c6:	70 82       	st	Z, r7
			#if DEBUG_LOG
			printf("RULE: D R -> J R\n");
			#endif
			goto pos41788;
    21c8:	ae c0       	rjmp	.+348    	; 0x2326 <Parser2+0x336>
//        <VOWEL> R -> <VOWEL> RX
// Example: ART


// If vowel flag is set change R to RX
		A = flags[A] & 128;
    21ca:	f0 e0       	ldi	r31, 0x00	; 0
    21cc:	e9 50       	subi	r30, 0x09	; 9
    21ce:	f4 4f       	sbci	r31, 0xF4	; 244
    21d0:	80 81       	ld	r24, Z
		#if DEBUG_LOG
		printf("RULE: R -> RX\n");
		#endif
		if (A != 0) phonemeIndex[pos] = 18;  // 'RX'
    21d2:	88 23       	and	r24, r24
    21d4:	24 f4       	brge	.+8      	; 0x21de <Parser2+0x1ee>
    21d6:	f8 01       	movw	r30, r16
    21d8:	e9 5e       	subi	r30, 0xE9	; 233
    21da:	f9 4f       	sbci	r31, 0xF9	; 249
    21dc:	a0 82       	st	Z, r10
		
// continue to next phoneme
		pos++;
    21de:	cf 5f       	subi	r28, 0xFF	; 255
		continue;
    21e0:	49 cf       	rjmp	.-366    	; 0x2074 <Parser2+0x84>
// RULE:
//       <VOWEL> L -> <VOWEL> LX
// Example: ALL

// Is phoneme L?
		if (A == 24)    // 'L'
    21e2:	98 31       	cpi	r25, 0x18	; 24
    21e4:	91 f4       	brne	.+36     	; 0x220a <Parser2+0x21a>
		{
// If prior phoneme does not have VOWEL flag set, move to next phoneme
			if ((flags[phonemeIndex[pos-1]] & 128) == 0) {pos++; continue;}
    21e6:	f8 01       	movw	r30, r16
    21e8:	ea 5e       	subi	r30, 0xEA	; 234
    21ea:	f9 4f       	sbci	r31, 0xF9	; 249
    21ec:	e0 81       	ld	r30, Z
    21ee:	f0 e0       	ldi	r31, 0x00	; 0
    21f0:	e9 50       	subi	r30, 0x09	; 9
    21f2:	f4 4f       	sbci	r31, 0xF4	; 244
    21f4:	80 81       	ld	r24, Z
    21f6:	88 23       	and	r24, r24
    21f8:	14 f0       	brlt	.+4      	; 0x21fe <Parser2+0x20e>
    21fa:	cf 5f       	subi	r28, 0xFF	; 255
    21fc:	3b cf       	rjmp	.-394    	; 0x2074 <Parser2+0x84>
// Prior phoneme has VOWEL flag set, so change L to LX and move to next phoneme
			#if DEBUG_LOG
			printf("RULE: <VOWEL> L -> <VOWEL> LX\n");
			#endif
			phonemeIndex[X] = 19;     // 'LX'
    21fe:	f8 01       	movw	r30, r16
    2200:	e9 5e       	subi	r30, 0xE9	; 233
    2202:	f9 4f       	sbci	r31, 0xF9	; 249
    2204:	60 82       	st	Z, r6
			pos++;
    2206:	cf 5f       	subi	r28, 0xFF	; 255
			continue;
    2208:	35 cf       	rjmp	.-406    	; 0x2074 <Parser2+0x84>
// Can't get to fire -
//       1. The G -> GX rule intervenes
//       2. Reciter already replaces GS -> GZ

// Is current phoneme S?
		if (A == 32)    // 'S'
    220a:	90 32       	cpi	r25, 0x20	; 32
    220c:	71 f4       	brne	.+28     	; 0x222a <Parser2+0x23a>
		{
// If prior phoneme is not G, move to next phoneme
			if (phonemeIndex[pos-1] != 60) {pos++; continue;}
    220e:	f8 01       	movw	r30, r16
    2210:	ea 5e       	subi	r30, 0xEA	; 234
    2212:	f9 4f       	sbci	r31, 0xF9	; 249
    2214:	80 81       	ld	r24, Z
    2216:	8c 33       	cpi	r24, 0x3C	; 60
    2218:	11 f0       	breq	.+4      	; 0x221e <Parser2+0x22e>
    221a:	cf 5f       	subi	r28, 0xFF	; 255
    221c:	2b cf       	rjmp	.-426    	; 0x2074 <Parser2+0x84>
// Replace S with Z and move on
			#if DEBUG_LOG
			printf("RULE: G S -> G Z\n");
			#endif
			phonemeIndex[pos] = 38;    // 'Z'
    221e:	f8 01       	movw	r30, r16
    2220:	e9 5e       	subi	r30, 0xE9	; 233
    2222:	f9 4f       	sbci	r31, 0xF9	; 249
    2224:	50 82       	st	Z, r5
			pos++;
    2226:	cf 5f       	subi	r28, 0xFF	; 255
			continue;
    2228:	25 cf       	rjmp	.-438    	; 0x2074 <Parser2+0x84>
// RULE:
//             K <VOWEL OR DIPHTONG NOT ENDING WITH IY> -> KX <VOWEL OR DIPHTONG NOT ENDING WITH IY>
// Example: COW

// Is current phoneme K?
		if (A == 72)    // 'K'
    222a:	98 34       	cpi	r25, 0x48	; 72
    222c:	b1 f4       	brne	.+44     	; 0x225a <Parser2+0x26a>
		{
// Get next phoneme
			Y = phonemeIndex[pos+1];
    222e:	f8 01       	movw	r30, r16
    2230:	e9 5e       	subi	r30, 0xE9	; 233
    2232:	f9 4f       	sbci	r31, 0xF9	; 249
    2234:	e1 81       	ldd	r30, Z+1	; 0x01
// If at end, replace current phoneme with KX
			if (Y == 255) phonemeIndex[pos] = 75; // ML : prevents an index out of bounds problem		
    2236:	ef 3f       	cpi	r30, 0xFF	; 255
    2238:	29 f4       	brne	.+10     	; 0x2244 <Parser2+0x254>
    223a:	f8 01       	movw	r30, r16
    223c:	e9 5e       	subi	r30, 0xE9	; 233
    223e:	f9 4f       	sbci	r31, 0xF9	; 249
    2240:	90 82       	st	Z, r9
    2242:	23 c0       	rjmp	.+70     	; 0x228a <Parser2+0x29a>
			else
			{
// VOWELS AND DIPHTONGS ENDING WITH IY SOUND flag set?
				A = flags[Y] & 32;
    2244:	f0 e0       	ldi	r31, 0x00	; 0
    2246:	e9 50       	subi	r30, 0x09	; 9
    2248:	f4 4f       	sbci	r31, 0xF4	; 244
    224a:	80 81       	ld	r24, Z
				#if DEBUG_LOG
				if (A==0) printf("RULE: K <VOWEL OR DIPHTONG NOT ENDING WITH IY> -> KX <VOWEL OR DIPHTONG NOT ENDING WITH IY>\n");
				#endif
// Replace with KX
				if (A == 0) phonemeIndex[pos] = 75;  // 'KX'
    224c:	85 fd       	sbrc	r24, 5
    224e:	1d c0       	rjmp	.+58     	; 0x228a <Parser2+0x29a>
    2250:	f8 01       	movw	r30, r16
    2252:	e9 5e       	subi	r30, 0xE9	; 233
    2254:	f9 4f       	sbci	r31, 0xF9	; 249
    2256:	90 82       	st	Z, r9
    2258:	18 c0       	rjmp	.+48     	; 0x228a <Parser2+0x29a>
//             G <VOWEL OR DIPHTONG NOT ENDING WITH IY> -> GX <VOWEL OR DIPHTONG NOT ENDING WITH IY>
// Example: GO


// Is character a G?
		if (A == 60)   // 'G'
    225a:	9c 33       	cpi	r25, 0x3C	; 60
    225c:	b1 f4       	brne	.+44     	; 0x228a <Parser2+0x29a>
		{
// Get the following character
			unsigned char index = phonemeIndex[pos+1];
    225e:	f8 01       	movw	r30, r16
    2260:	e9 5e       	subi	r30, 0xE9	; 233
    2262:	f9 4f       	sbci	r31, 0xF9	; 249
    2264:	e1 81       	ldd	r30, Z+1	; 0x01
			
// At end of buffer?
			if (index == 255) //prevent buffer overflow
    2266:	ef 3f       	cpi	r30, 0xFF	; 255
    2268:	11 f4       	brne	.+4      	; 0x226e <Parser2+0x27e>
			{
				pos++; continue;
    226a:	cf 5f       	subi	r28, 0xFF	; 255
    226c:	03 cf       	rjmp	.-506    	; 0x2074 <Parser2+0x84>
			}
			else
// If diphtong ending with YX, move continue processing next phoneme
			if ((flags[index] & 32) != 0) {pos++; continue;}
    226e:	f0 e0       	ldi	r31, 0x00	; 0
    2270:	e9 50       	subi	r30, 0x09	; 9
    2272:	f4 4f       	sbci	r31, 0xF4	; 244
    2274:	80 81       	ld	r24, Z
    2276:	85 ff       	sbrs	r24, 5
    2278:	02 c0       	rjmp	.+4      	; 0x227e <Parser2+0x28e>
    227a:	cf 5f       	subi	r28, 0xFF	; 255
    227c:	fb ce       	rjmp	.-522    	; 0x2074 <Parser2+0x84>
// replace G with GX and continue processing next phoneme
			#if DEBUG_LOG
			printf("RULE: G <VOWEL OR DIPHTONG NOT ENDING WITH IY> -> GX <VOWEL OR DIPHTONG NOT ENDING WITH IY>\n");
			#endif
			phonemeIndex[pos] = 63; // 'GX'
    227e:	f8 01       	movw	r30, r16
    2280:	e9 5e       	subi	r30, 0xE9	; 233
    2282:	f9 4f       	sbci	r31, 0xF9	; 249
    2284:	40 82       	st	Z, r4
			pos++;
    2286:	cf 5f       	subi	r28, 0xFF	; 255
			continue;
    2288:	f5 ce       	rjmp	.-534    	; 0x2074 <Parser2+0x84>
//      S T -> S D
//      S K -> S G
//      S KX -> S GX
// Examples: SPY, STY, SKY, SCOWL
		
		Y = phonemeIndex[pos];
    228a:	f8 01       	movw	r30, r16
    228c:	e9 5e       	subi	r30, 0xE9	; 233
    228e:	f9 4f       	sbci	r31, 0xF9	; 249
    2290:	80 81       	ld	r24, Z
    2292:	80 93 d8 04 	sts	0x04D8, r24	; 0x8004d8 <Y>
		//pos41719:
// Replace with softer version?
		A = flags[Y] & 1;
    2296:	e8 2f       	mov	r30, r24
    2298:	f0 e0       	ldi	r31, 0x00	; 0
    229a:	e9 50       	subi	r30, 0x09	; 9
    229c:	f4 4f       	sbci	r31, 0xF4	; 244
    229e:	90 81       	ld	r25, Z
		if (A == 0) goto pos41749;
    22a0:	90 ff       	sbrs	r25, 0
    22a2:	10 c0       	rjmp	.+32     	; 0x22c4 <Parser2+0x2d4>
		A = phonemeIndex[pos-1];
    22a4:	f8 01       	movw	r30, r16
    22a6:	ea 5e       	subi	r30, 0xEA	; 234
    22a8:	f9 4f       	sbci	r31, 0xF9	; 249
    22aa:	90 81       	ld	r25, Z
		if (A != 32)    // 'S'
    22ac:	90 32       	cpi	r25, 0x20	; 32
    22ae:	19 f0       	breq	.+6      	; 0x22b6 <Parser2+0x2c6>
		{
			A = Y;
    22b0:	80 93 d6 03 	sts	0x03D6, r24	; 0x8003d6 <A>
			goto pos41812;
    22b4:	4a c0       	rjmp	.+148    	; 0x234a <Parser2+0x35a>
		}
		// Replace with softer version
		#if DEBUG_LOG
		printf("RULE: S* %c%c -> S* %c%c\n", signInputTable1[Y], signInputTable2[Y],signInputTable1[Y-12], signInputTable2[Y-12]);
		#endif
		phonemeIndex[pos] = Y-12;
    22b6:	f8 01       	movw	r30, r16
    22b8:	e9 5e       	subi	r30, 0xE9	; 233
    22ba:	f9 4f       	sbci	r31, 0xF9	; 249
    22bc:	8c 50       	subi	r24, 0x0C	; 12
    22be:	80 83       	st	Z, r24
		pos++;
    22c0:	cf 5f       	subi	r28, 0xFF	; 255
		continue;
    22c2:	d8 ce       	rjmp	.-592    	; 0x2074 <Parser2+0x84>
//
// Example: NEW, DEW, SUE, ZOO, THOO, TOO

//       UW -> UX

		A = phonemeIndex[X];
    22c4:	80 91 93 08 	lds	r24, 0x0893	; 0x800893 <X>
    22c8:	90 e0       	ldi	r25, 0x00	; 0
    22ca:	fc 01       	movw	r30, r24
    22cc:	e9 5e       	subi	r30, 0xE9	; 233
    22ce:	f9 4f       	sbci	r31, 0xF9	; 249
    22d0:	20 81       	ld	r18, Z
    22d2:	20 93 d6 03 	sts	0x03D6, r18	; 0x8003d6 <A>
		if (A == 53)    // 'UW'
    22d6:	25 33       	cpi	r18, 0x35	; 53
    22d8:	a1 f4       	brne	.+40     	; 0x2302 <Parser2+0x312>
		{
// ALVEOLAR flag set?
			Y = phonemeIndex[X-1];
    22da:	fc 01       	movw	r30, r24
    22dc:	ea 5e       	subi	r30, 0xEA	; 234
    22de:	f9 4f       	sbci	r31, 0xF9	; 249
    22e0:	e0 81       	ld	r30, Z
    22e2:	e0 93 d8 04 	sts	0x04D8, r30	; 0x8004d8 <Y>
			A = pgm_read_byte(&(flags2[Y])) & 4;
    22e6:	f0 e0       	ldi	r31, 0x00	; 0
    22e8:	e7 55       	subi	r30, 0x57	; 87
    22ea:	f4 4f       	sbci	r31, 0xF4	; 244
    22ec:	e4 91       	lpm	r30, Z
// If not set, continue processing next phoneme
			if (A == 0) {pos++; continue;}
    22ee:	e2 fd       	sbrc	r30, 2
    22f0:	02 c0       	rjmp	.+4      	; 0x22f6 <Parser2+0x306>
    22f2:	cf 5f       	subi	r28, 0xFF	; 255
    22f4:	bf ce       	rjmp	.-642    	; 0x2074 <Parser2+0x84>
			#if DEBUG_LOG
			printf("RULE: <ALVEOLAR> UW -> <ALVEOLAR> UX\n");
			#endif
			phonemeIndex[X] = 16;
    22f6:	fc 01       	movw	r30, r24
    22f8:	e9 5e       	subi	r30, 0xE9	; 233
    22fa:	f9 4f       	sbci	r31, 0xF9	; 249
    22fc:	c0 82       	st	Z, r12
			pos++;
    22fe:	cf 5f       	subi	r28, 0xFF	; 255
			continue;
    2300:	b9 ce       	rjmp	.-654    	; 0x2074 <Parser2+0x84>

// RULE:
//       CH -> CH CH' (CH requires two phonemes to represent it)
// Example: CHEW

		if (A == 42)    // 'CH'
    2302:	80 91 d6 03 	lds	r24, 0x03D6	; 0x8003d6 <A>
    2306:	8a 32       	cpi	r24, 0x2A	; 42
    2308:	71 f4       	brne	.+28     	; 0x2326 <Parser2+0x336>
		{
			//        pos41783:
			#if DEBUG_LOG
			printf("CH -> CH CH+1\n");
			#endif
			Insert(X+1, A+1, mem59, stress[X]);
    230a:	80 91 93 08 	lds	r24, 0x0893	; 0x800893 <X>
    230e:	e8 2f       	mov	r30, r24
    2310:	f0 e0       	ldi	r31, 0x00	; 0
    2312:	e6 52       	subi	r30, 0x26	; 38
    2314:	fb 4f       	sbci	r31, 0xFB	; 251
    2316:	20 81       	ld	r18, Z
    2318:	40 91 41 02 	lds	r20, 0x0241	; 0x800241 <mem59>
    231c:	6b e2       	ldi	r22, 0x2B	; 43
    231e:	8f 5f       	subi	r24, 0xFF	; 255
    2320:	48 dc       	rcall	.-1904   	; 0x1bb2 <Insert>
			pos++;
    2322:	cf 5f       	subi	r28, 0xFF	; 255
			continue;
    2324:	a7 ce       	rjmp	.-690    	; 0x2074 <Parser2+0x84>
// RULE:
//       J -> J J' (J requires two phonemes to represent it)
// Example: JAY
         

		if (A == 44) // 'J'
    2326:	80 91 d6 03 	lds	r24, 0x03D6	; 0x8003d6 <A>
    232a:	8c 32       	cpi	r24, 0x2C	; 44
    232c:	71 f4       	brne	.+28     	; 0x234a <Parser2+0x35a>
		{
			#if DEBUG_LOG
			printf("J -> J J+1\n");
			#endif
			Insert(X+1, A+1, mem59, stress[X]);
    232e:	80 91 93 08 	lds	r24, 0x0893	; 0x800893 <X>
    2332:	e8 2f       	mov	r30, r24
    2334:	f0 e0       	ldi	r31, 0x00	; 0
    2336:	e6 52       	subi	r30, 0x26	; 38
    2338:	fb 4f       	sbci	r31, 0xFB	; 251
    233a:	20 81       	ld	r18, Z
    233c:	40 91 41 02 	lds	r20, 0x0241	; 0x800241 <mem59>
    2340:	6d e2       	ldi	r22, 0x2D	; 45
    2342:	8f 5f       	subi	r24, 0xFF	; 255
    2344:	36 dc       	rcall	.-1940   	; 0x1bb2 <Insert>
			pos++;
    2346:	cf 5f       	subi	r28, 0xFF	; 255
			continue;
    2348:	95 ce       	rjmp	.-726    	; 0x2074 <Parser2+0x84>
// Example: PARTY, TARDY


// Past this point, only process if phoneme is T or D
         
		if (A != 69)    // 'T'
    234a:	80 91 d6 03 	lds	r24, 0x03D6	; 0x8003d6 <A>
    234e:	85 34       	cpi	r24, 0x45	; 69
    2350:	21 f0       	breq	.+8      	; 0x235a <Parser2+0x36a>
		if (A != 57) {pos++; continue;}       // 'D'
    2352:	89 33       	cpi	r24, 0x39	; 57
    2354:	11 f0       	breq	.+4      	; 0x235a <Parser2+0x36a>
    2356:	cf 5f       	subi	r28, 0xFF	; 255
    2358:	8d ce       	rjmp	.-742    	; 0x2074 <Parser2+0x84>
		//pos41825:


// If prior phoneme is not a vowel, continue processing phonemes
		if ((flags[phonemeIndex[X-1]] & 128) == 0) {pos++; continue;}
    235a:	80 91 93 08 	lds	r24, 0x0893	; 0x800893 <X>
    235e:	e8 2f       	mov	r30, r24
    2360:	f0 e0       	ldi	r31, 0x00	; 0
    2362:	ea 5e       	subi	r30, 0xEA	; 234
    2364:	f9 4f       	sbci	r31, 0xF9	; 249
    2366:	e0 81       	ld	r30, Z
    2368:	f0 e0       	ldi	r31, 0x00	; 0
    236a:	e9 50       	subi	r30, 0x09	; 9
    236c:	f4 4f       	sbci	r31, 0xF4	; 244
    236e:	90 81       	ld	r25, Z
    2370:	99 23       	and	r25, r25
    2372:	14 f0       	brlt	.+4      	; 0x2378 <Parser2+0x388>
    2374:	cf 5f       	subi	r28, 0xFF	; 255
    2376:	7e ce       	rjmp	.-772    	; 0x2074 <Parser2+0x84>
		
// Get next phoneme
		X++;
    2378:	8f 5f       	subi	r24, 0xFF	; 255
		A = phonemeIndex[X];
    237a:	90 e0       	ldi	r25, 0x00	; 0
    237c:	fc 01       	movw	r30, r24
    237e:	e9 5e       	subi	r30, 0xE9	; 233
    2380:	f9 4f       	sbci	r31, 0xF9	; 249
    2382:	e0 81       	ld	r30, Z
		//pos41841
// Is the next phoneme a pause?
		if (A != 0)
    2384:	ee 23       	and	r30, r30
    2386:	a9 f0       	breq	.+42     	; 0x23b2 <Parser2+0x3c2>
		{
// If next phoneme is not a pause, continue processing phonemes
			if ((flags[A] & 128) == 0) {pos++; continue;}
    2388:	f0 e0       	ldi	r31, 0x00	; 0
    238a:	e9 50       	subi	r30, 0x09	; 9
    238c:	f4 4f       	sbci	r31, 0xF4	; 244
    238e:	20 81       	ld	r18, Z
    2390:	22 23       	and	r18, r18
    2392:	14 f0       	brlt	.+4      	; 0x2398 <Parser2+0x3a8>
    2394:	cf 5f       	subi	r28, 0xFF	; 255
    2396:	6e ce       	rjmp	.-804    	; 0x2074 <Parser2+0x84>
// If next phoneme is stressed, continue processing phonemes
// FIXME: How does a pause get stressed?
			if (stress[X] != 0) {pos++; continue;}
    2398:	fc 01       	movw	r30, r24
    239a:	e6 52       	subi	r30, 0x26	; 38
    239c:	fb 4f       	sbci	r31, 0xFB	; 251
    239e:	80 81       	ld	r24, Z
    23a0:	88 23       	and	r24, r24
    23a2:	11 f0       	breq	.+4      	; 0x23a8 <Parser2+0x3b8>
    23a4:	cf 5f       	subi	r28, 0xFF	; 255
    23a6:	66 ce       	rjmp	.-820    	; 0x2074 <Parser2+0x84>
//pos41856:
// Set phonemes to DX
		#if DEBUG_LOG
		printf("RULE: Soften T or D following vowel or ER and preceding a pause -> DX\n");
		#endif
		phonemeIndex[pos] = 30;       // 'DX'
    23a8:	f8 01       	movw	r30, r16
    23aa:	e9 5e       	subi	r30, 0xE9	; 233
    23ac:	f9 4f       	sbci	r31, 0xF9	; 249
    23ae:	80 82       	st	Z, r8
    23b0:	10 c0       	rjmp	.+32     	; 0x23d2 <Parser2+0x3e2>
		} else
		{
			A = phonemeIndex[X+1];
    23b2:	fc 01       	movw	r30, r24
    23b4:	e9 5e       	subi	r30, 0xE9	; 233
    23b6:	f9 4f       	sbci	r31, 0xF9	; 249
    23b8:	e1 81       	ldd	r30, Z+1	; 0x01
			if (A == 255) //prevent buffer overflow
    23ba:	ef 3f       	cpi	r30, 0xFF	; 255
    23bc:	51 f0       	breq	.+20     	; 0x23d2 <Parser2+0x3e2>
				A = 65 & 128;
			else
// Is next phoneme a vowel or ER?
				A = flags[A] & 128;
    23be:	f0 e0       	ldi	r31, 0x00	; 0
    23c0:	e9 50       	subi	r30, 0x09	; 9
    23c2:	f4 4f       	sbci	r31, 0xF4	; 244
    23c4:	80 81       	ld	r24, Z
			#if DEBUG_LOG
			if (A != 0) printf("RULE: Soften T or D following vowel or ER and preceding a pause -> DX\n");
			#endif
			if (A != 0) phonemeIndex[pos] = 30;  // 'DX'
    23c6:	88 23       	and	r24, r24
    23c8:	24 f4       	brge	.+8      	; 0x23d2 <Parser2+0x3e2>
    23ca:	f8 01       	movw	r30, r16
    23cc:	e9 5e       	subi	r30, 0xE9	; 233
    23ce:	f9 4f       	sbci	r31, 0xF9	; 249
    23d0:	80 82       	st	Z, r8
		}

		pos++;
    23d2:	cf 5f       	subi	r28, 0xFF	; 255
    23d4:	4f ce       	rjmp	.-866    	; 0x2074 <Parser2+0x84>

	} // while
}
    23d6:	df 91       	pop	r29
    23d8:	cf 91       	pop	r28
    23da:	1f 91       	pop	r17
    23dc:	0f 91       	pop	r16
    23de:	ff 90       	pop	r15
    23e0:	ef 90       	pop	r14
    23e2:	df 90       	pop	r13
    23e4:	cf 90       	pop	r12
    23e6:	bf 90       	pop	r11
    23e8:	af 90       	pop	r10
    23ea:	9f 90       	pop	r9
    23ec:	8f 90       	pop	r8
    23ee:	7f 90       	pop	r7
    23f0:	6f 90       	pop	r6
    23f2:	5f 90       	pop	r5
    23f4:	4f 90       	pop	r4
    23f6:	3f 90       	pop	r3
    23f8:	08 95       	ret

000023fa <AdjustLengths>:
//         <LIQUID CONSONANT> <DIPHTONG> - decrease by 2


//void Code48619()
void AdjustLengths()
{
    23fa:	cf 93       	push	r28
    23fc:	60 91 d6 03 	lds	r22, 0x03D6	; 0x8003d6 <A>
    // process all phonemes between there and up to (but not including) the punctuation.
    // If any phoneme is found that is a either a fricative or voiced, the duration is
    // increased by (length * 1.5) + 1

    // loop index
	X = 0;
    2400:	a1 e0       	ldi	r26, 0x01	; 1
    2402:	01 c0       	rjmp	.+2      	; 0x2406 <AdjustLengths+0xc>
    2404:	af 5f       	subi	r26, 0xFF	; 255
    2406:	7f ef       	ldi	r23, 0xFF	; 255
    2408:	7a 0f       	add	r23, r26
    // iterate through the phoneme list
	unsigned char loopIndex=0;
	while(1)
	{
        // get a phoneme
		index = phonemeIndex[X];
    240a:	e7 2f       	mov	r30, r23
    240c:	f0 e0       	ldi	r31, 0x00	; 0
    240e:	e9 5e       	subi	r30, 0xE9	; 233
    2410:	f9 4f       	sbci	r31, 0xF9	; 249
    2412:	e0 81       	ld	r30, Z
		
		// exit loop if end on buffer token
		if (index == 255) break;
    2414:	ef 3f       	cpi	r30, 0xFF	; 255
    2416:	51 f4       	brne	.+20     	; 0x242c <AdjustLengths+0x32>
    2418:	60 93 d6 03 	sts	0x03D6, r22	; 0x8003d6 <A>
    241c:	a0 91 55 08 	lds	r26, 0x0855	; 0x800855 <mem56>
    2420:	30 91 d6 03 	lds	r19, 0x03D6	; 0x8003d6 <A>
			X++;
			index = phonemeIndex[X];
			
			// get flags
			if (index == 255) 
			mem56 = 65; // use if end marker
    2424:	20 e0       	ldi	r18, 0x00	; 0
printf("POST\n");
printf("phoneme %d (%c%c) length %d\n", X, signInputTable1[phonemeIndex[X]], signInputTable2[phonemeIndex[X]], phonemeLength[X]);
printf("phoneme %d (%c%c) length %d\n", X-1, signInputTable1[phonemeIndex[X-1]], signInputTable2[phonemeIndex[X-1]], phonemeLength[X-1]);
#endif
                // set stop consonant length to 6
                phonemeLength[X] = 6;
    2426:	c6 e0       	ldi	r28, 0x06	; 6
                
                // set nasal length to 5
                phonemeLength[X-1] = 5;
    2428:	b5 e0       	ldi	r27, 0x05	; 5
    242a:	42 c0       	rjmp	.+132    	; 0x24b0 <AdjustLengths+0xb6>
		
		// exit loop if end on buffer token
		if (index == 255) break;

		// not punctuation?
		if((pgm_read_byte(&(flags2[index])) & 1) == 0)
    242c:	f0 e0       	ldi	r31, 0x00	; 0
    242e:	e7 55       	subi	r30, 0x57	; 87
    2430:	f4 4f       	sbci	r31, 0xF4	; 244
    2432:	e4 91       	lpm	r30, Z
    2434:	e0 ff       	sbrs	r30, 0
    2436:	e6 cf       	rjmp	.-52     	; 0x2404 <AdjustLengths+0xa>
    2438:	8e ef       	ldi	r24, 0xFE	; 254
    243a:	8a 0f       	add	r24, r26
    243c:	01 c0       	rjmp	.+2      	; 0x2440 <AdjustLengths+0x46>
    243e:	89 2f       	mov	r24, r25
         
        // back up one phoneme
		X--;
		
		// stop once the beginning is reached
		if(X == 0) break;
    2440:	81 11       	cpse	r24, r1
    2442:	03 c0       	rjmp	.+6      	; 0x244a <AdjustLengths+0x50>
    2444:	60 93 d6 03 	sts	0x03D6, r22	; 0x8003d6 <A>
    2448:	e9 cf       	rjmp	.-46     	; 0x241c <AdjustLengths+0x22>
		
		// get the preceding phoneme
		index = phonemeIndex[X];
    244a:	e8 2f       	mov	r30, r24
    244c:	f0 e0       	ldi	r31, 0x00	; 0
    244e:	e9 5e       	subi	r30, 0xE9	; 233
    2450:	f9 4f       	sbci	r31, 0xF9	; 249
    2452:	e0 81       	ld	r30, Z

		if (index != 255) //inserted to prevent access overrun
    2454:	ef 3f       	cpi	r30, 0xFF	; 255
    2456:	41 f0       	breq	.+16     	; 0x2468 <AdjustLengths+0x6e>
		if((pgm_read_byte(&(flags[index])) & 128) == 0) goto pos48644; // if not a vowel, continue looping
    2458:	f0 e0       	ldi	r31, 0x00	; 0
    245a:	e9 50       	subi	r30, 0x09	; 9
    245c:	f4 4f       	sbci	r31, 0xF4	; 244
    245e:	e4 91       	lpm	r30, Z
    2460:	9f ef       	ldi	r25, 0xFF	; 255
    2462:	98 0f       	add	r25, r24
    2464:	ee 23       	and	r30, r30
    2466:	5c f7       	brge	.-42     	; 0x243e <AdjustLengths+0x44>

		//pos48657:
		do
		{
            // test for vowel
			index = phonemeIndex[X];
    2468:	48 2f       	mov	r20, r24
    246a:	50 e0       	ldi	r21, 0x00	; 0
    246c:	fa 01       	movw	r30, r20
    246e:	e9 5e       	subi	r30, 0xE9	; 233
    2470:	f9 4f       	sbci	r31, 0xF9	; 249
    2472:	20 81       	ld	r18, Z

			if (index != 255)//inserted to prevent access overrun
    2474:	2f 3f       	cpi	r18, 0xFF	; 255
    2476:	b1 f0       	breq	.+44     	; 0x24a4 <AdjustLengths+0xaa>
			// test for fricative/unvoiced or not voiced
			if(((flags2[index] & 32) == 0) || ((flags[index] & 4) != 0))     //nochmal berprfen
    2478:	30 e0       	ldi	r19, 0x00	; 0
    247a:	f9 01       	movw	r30, r18
    247c:	e7 55       	subi	r30, 0x57	; 87
    247e:	f4 4f       	sbci	r31, 0xF4	; 244
    2480:	90 81       	ld	r25, Z
    2482:	95 ff       	sbrs	r25, 5
    2484:	06 c0       	rjmp	.+12     	; 0x2492 <AdjustLengths+0x98>
    2486:	f9 01       	movw	r30, r18
    2488:	e9 50       	subi	r30, 0x09	; 9
    248a:	f4 4f       	sbci	r31, 0xF4	; 244
    248c:	90 81       	ld	r25, Z
    248e:	92 ff       	sbrs	r25, 2
    2490:	09 c0       	rjmp	.+18     	; 0x24a4 <AdjustLengths+0xaa>
			{
				//A = flags[Y] & 4;
				//if(A == 0) goto pos48688;
								
                // get the phoneme length
				A = phonemeLength[X];
    2492:	fa 01       	movw	r30, r20
    2494:	e7 5e       	subi	r30, 0xE7	; 231
    2496:	f8 4f       	sbci	r31, 0xF8	; 248
    2498:	90 81       	ld	r25, Z
    249a:	61 e0       	ldi	r22, 0x01	; 1
    249c:	69 0f       	add	r22, r25

				// change phoneme length to (length * 1.5) + 1
				A = (A >> 1) + A + 1;
    249e:	96 95       	lsr	r25
    24a0:	69 0f       	add	r22, r25
#if DEBUG_LOG
printf("RULE: Lengthen <FRICATIVE> or <VOICED> between <VOWEL> and <PUNCTUATION> by 1.5\n");
printf("PRE\n");
printf("phoneme %d (%c%c) length %d\n", X, signInputTable1[phonemeIndex[X]], signInputTable2[phonemeIndex[X]], phonemeLength[X]);
#endif
				phonemeLength[X] = A;
    24a2:	60 83       	st	Z, r22
    24a4:	8f 5f       	subi	r24, 0xFF	; 255
printf("phoneme %d (%c%c) length %d\n", X, signInputTable1[phonemeIndex[X]], signInputTable2[phonemeIndex[X]], phonemeLength[X]);
#endif
			}
            // keep moving forward
			X++;
		} while (X != loopIndex);
    24a6:	87 13       	cpse	r24, r23
    24a8:	df cf       	rjmp	.-66     	; 0x2468 <AdjustLengths+0x6e>
    24aa:	ac cf       	rjmp	.-168    	; 0x2404 <AdjustLengths+0xa>
			X++;
			index = phonemeIndex[X];
			
			// get flags
			if (index == 255) 
			mem56 = 65; // use if end marker
    24ac:	a1 e4       	ldi	r26, 0x41	; 65
    24ae:	28 2f       	mov	r18, r24

	while(1)
	{
        // get a phoneme
		X = loopIndex;
		index = phonemeIndex[X];
    24b0:	62 2f       	mov	r22, r18
    24b2:	70 e0       	ldi	r23, 0x00	; 0
    24b4:	fb 01       	movw	r30, r22
    24b6:	e9 5e       	subi	r30, 0xE9	; 233
    24b8:	f9 4f       	sbci	r31, 0xF9	; 249
    24ba:	80 81       	ld	r24, Z
		
		// exit routine at end token
		if (index == 255) return;
    24bc:	8f 3f       	cpi	r24, 0xFF	; 255
    24be:	09 f4       	brne	.+2      	; 0x24c2 <AdjustLengths+0xc8>
    24c0:	b3 c0       	rjmp	.+358    	; 0x2628 <AdjustLengths+0x22e>

		// vowel?
		A = flags[index] & 128;
    24c2:	90 e0       	ldi	r25, 0x00	; 0
    24c4:	fc 01       	movw	r30, r24
    24c6:	e9 50       	subi	r30, 0x09	; 9
    24c8:	f4 4f       	sbci	r31, 0xF4	; 244
    24ca:	40 81       	ld	r20, Z
    24cc:	34 2f       	mov	r19, r20
    24ce:	30 78       	andi	r19, 0x80	; 128
		if (A != 0)
    24d0:	09 f4       	brne	.+2      	; 0x24d4 <AdjustLengths+0xda>
    24d2:	42 c0       	rjmp	.+132    	; 0x2558 <AdjustLengths+0x15e>
		{
            // get next phoneme
			X++;
    24d4:	81 e0       	ldi	r24, 0x01	; 1
    24d6:	82 0f       	add	r24, r18
			index = phonemeIndex[X];
    24d8:	48 2f       	mov	r20, r24
    24da:	50 e0       	ldi	r21, 0x00	; 0
    24dc:	fa 01       	movw	r30, r20
    24de:	e9 5e       	subi	r30, 0xE9	; 233
    24e0:	f9 4f       	sbci	r31, 0xF9	; 249
    24e2:	90 81       	ld	r25, Z
			
			// get flags
			if (index == 255) 
    24e4:	9f 3f       	cpi	r25, 0xFF	; 255
    24e6:	11 f3       	breq	.-60     	; 0x24ac <AdjustLengths+0xb2>
			mem56 = 65; // use if end marker
			else
			mem56 = flags[index];
    24e8:	e9 2f       	mov	r30, r25
    24ea:	f0 e0       	ldi	r31, 0x00	; 0
    24ec:	e9 50       	subi	r30, 0x09	; 9
    24ee:	f4 4f       	sbci	r31, 0xF4	; 244
    24f0:	a0 81       	ld	r26, Z

            // not a consonant
			if ((flags[index] & 64) == 0)
    24f2:	a6 fd       	sbrc	r26, 6
    24f4:	16 c0       	rjmp	.+44     	; 0x2522 <AdjustLengths+0x128>
			{
                // RX or LX?
				if ((index == 18) || (index == 19))  // 'RX' & 'LX'
    24f6:	92 51       	subi	r25, 0x12	; 18
    24f8:	92 30       	cpi	r25, 0x02	; 2
    24fa:	c8 f6       	brcc	.-78     	; 0x24ae <AdjustLengths+0xb4>
				{
                    // get the next phoneme
					X++;
    24fc:	2e 5f       	subi	r18, 0xFE	; 254
					index = phonemeIndex[X];
    24fe:	e2 2f       	mov	r30, r18
    2500:	f0 e0       	ldi	r31, 0x00	; 0
    2502:	e9 5e       	subi	r30, 0xE9	; 233
    2504:	f9 4f       	sbci	r31, 0xF9	; 249
					
					// next phoneme a consonant?
					if ((flags[index] & 64) != 0) {
    2506:	e0 81       	ld	r30, Z
    2508:	f0 e0       	ldi	r31, 0x00	; 0
    250a:	e9 50       	subi	r30, 0x09	; 9
    250c:	f4 4f       	sbci	r31, 0xF4	; 244
    250e:	90 81       	ld	r25, Z
    2510:	96 ff       	sbrs	r25, 6
    2512:	cd cf       	rjmp	.-102    	; 0x24ae <AdjustLengths+0xb4>
printf("RULE: <VOWEL> <RX | LX> <CONSONANT> - decrease length by 1\n");
printf("PRE\n");
printf("phoneme %d (%c%c) length %d\n", loopIndex, signInputTable1[phonemeIndex[loopIndex]], signInputTable2[phonemeIndex[loopIndex]], phonemeLength[loopIndex]);
#endif         
                        // decrease length of vowel by 1 frame
    					phonemeLength[loopIndex]--;
    2514:	fb 01       	movw	r30, r22
    2516:	e7 5e       	subi	r30, 0xE7	; 231
    2518:	f8 4f       	sbci	r31, 0xF8	; 248
    251a:	90 81       	ld	r25, Z
    251c:	91 50       	subi	r25, 0x01	; 1
    251e:	90 83       	st	Z, r25
    2520:	c6 cf       	rjmp	.-116    	; 0x24ae <AdjustLengths+0xb4>
			
			
			// Got here if not <VOWEL>

            // not voiced
			if ((mem56 & 4) == 0)
    2522:	a2 fd       	sbrc	r26, 2
    2524:	0d c0       	rjmp	.+26     	; 0x2540 <AdjustLengths+0x146>
                       
                 // Unvoiced 
                 // *, .*, ?*, ,*, -*, DX, S*, SH, F*, TH, /H, /X, CH, P*, T*, K*, KX
                 
                // not an unvoiced plosive?
				if((mem56 & 1) == 0) {
    2526:	a0 ff       	sbrs	r26, 0
    2528:	c2 cf       	rjmp	.-124    	; 0x24ae <AdjustLengths+0xb4>
printf("RULE: <VOWEL> <UNVOICED PLOSIVE> - decrease vowel by 1/8th\n");
printf("PRE\n");
printf("phoneme %d (%c%c) length %d\n", X, signInputTable1[phonemeIndex[X]], signInputTable2[phonemeIndex[X]],  phonemeLength[X]);
#endif
                // decrease length by 1/8th
				mem56 = phonemeLength[X] >> 3;
    252a:	fb 01       	movw	r30, r22
    252c:	e7 5e       	subi	r30, 0xE7	; 231
    252e:	f8 4f       	sbci	r31, 0xF8	; 248
    2530:	90 81       	ld	r25, Z
    2532:	a9 2f       	mov	r26, r25
    2534:	a6 95       	lsr	r26
    2536:	a6 95       	lsr	r26
    2538:	a6 95       	lsr	r26
				phonemeLength[X] -= mem56;
    253a:	9a 1b       	sub	r25, r26
    253c:	90 83       	st	Z, r25
printf("POST\n");
printf("phoneme %d (%c%c) length %d\n", X, signInputTable1[phonemeIndex[X]], signInputTable2[phonemeIndex[X]], phonemeLength[X]);
#endif
                // move ahead
				loopIndex++;
				continue;
    253e:	b7 cf       	rjmp	.-146    	; 0x24ae <AdjustLengths+0xb4>
printf("RULE: <VOWEL> <VOICED CONSONANT> - increase vowel by 1/2 + 1\n");
printf("PRE\n");
printf("phoneme %d (%c%c) length %d\n", X-1, signInputTable1[phonemeIndex[X-1]], signInputTable2[phonemeIndex[X-1]],  phonemeLength[X-1]);
#endif
            // decrease length
			A = phonemeLength[X-1];
    2540:	fa 01       	movw	r30, r20
    2542:	e8 5e       	subi	r30, 0xE8	; 232
    2544:	f8 4f       	sbci	r31, 0xF8	; 248
    2546:	30 81       	ld	r19, Z
    2548:	21 e0       	ldi	r18, 0x01	; 1
    254a:	23 0f       	add	r18, r19
			phonemeLength[X-1] = (A >> 2) + A + 1;     // 5/4*A + 1
    254c:	93 2f       	mov	r25, r19
    254e:	96 95       	lsr	r25
    2550:	96 95       	lsr	r25
    2552:	92 0f       	add	r25, r18
    2554:	90 83       	st	Z, r25
printf("POST\n");
printf("phoneme %d (%c%c) length %d\n", X-1, signInputTable1[phonemeIndex[X-1]], signInputTable2[phonemeIndex[X-1]], phonemeLength[X-1]);
#endif
            // move ahead
			loopIndex++;
			continue;
    2556:	ab cf       	rjmp	.-170    	; 0x24ae <AdjustLengths+0xb4>
        // RULE: <NASAL> <STOP CONSONANT>
        //       Set punctuation length to 6
        //       Set stop consonant length to 5
           
        // nasal?
        if((flags2[index] & 8) != 0)
    2558:	fc 01       	movw	r30, r24
    255a:	e7 55       	subi	r30, 0x57	; 87
    255c:	f4 4f       	sbci	r31, 0xF4	; 244
    255e:	80 81       	ld	r24, Z
    2560:	98 2f       	mov	r25, r24
    2562:	98 70       	andi	r25, 0x08	; 8
    2564:	83 ff       	sbrs	r24, 3
    2566:	1a c0       	rjmp	.+52     	; 0x259c <AdjustLengths+0x1a2>
        {
                          
            // M*, N*, NX, 

            // get the next phoneme
            X++;
    2568:	81 e0       	ldi	r24, 0x01	; 1
    256a:	82 0f       	add	r24, r18
            index = phonemeIndex[X];
    256c:	48 2f       	mov	r20, r24
    256e:	50 e0       	ldi	r21, 0x00	; 0
    2570:	fa 01       	movw	r30, r20
    2572:	e9 5e       	subi	r30, 0xE9	; 233
    2574:	f9 4f       	sbci	r31, 0xF9	; 249
    2576:	e0 81       	ld	r30, Z

            // end of buffer?
            if (index == 255)
    2578:	ef 3f       	cpi	r30, 0xFF	; 255
    257a:	09 f4       	brne	.+2      	; 0x257e <AdjustLengths+0x184>
    257c:	98 cf       	rjmp	.-208    	; 0x24ae <AdjustLengths+0xb4>
               A = 65&2;  //prevent buffer overflow
            else
                A = flags[index] & 2; // check for stop consonant
    257e:	f0 e0       	ldi	r31, 0x00	; 0
    2580:	e9 50       	subi	r30, 0x09	; 9
    2582:	f4 4f       	sbci	r31, 0xF4	; 244
    2584:	90 81       	ld	r25, Z


            // is next phoneme a stop consonant?
            if (A != 0)
    2586:	39 2f       	mov	r19, r25
    2588:	32 70       	andi	r19, 0x02	; 2
    258a:	91 ff       	sbrs	r25, 1
    258c:	90 cf       	rjmp	.-224    	; 0x24ae <AdjustLengths+0xb4>
printf("POST\n");
printf("phoneme %d (%c%c) length %d\n", X, signInputTable1[phonemeIndex[X]], signInputTable2[phonemeIndex[X]], phonemeLength[X]);
printf("phoneme %d (%c%c) length %d\n", X-1, signInputTable1[phonemeIndex[X-1]], signInputTable2[phonemeIndex[X-1]], phonemeLength[X-1]);
#endif
                // set stop consonant length to 6
                phonemeLength[X] = 6;
    258e:	fa 01       	movw	r30, r20
    2590:	e7 5e       	subi	r30, 0xE7	; 231
    2592:	f8 4f       	sbci	r31, 0xF8	; 248
    2594:	c0 83       	st	Z, r28
                
                // set nasal length to 5
                phonemeLength[X-1] = 5;
    2596:	31 97       	sbiw	r30, 0x01	; 1
    2598:	b0 83       	st	Z, r27
    259a:	89 cf       	rjmp	.-238    	; 0x24ae <AdjustLengths+0xb4>

        // RULE: <VOICED STOP CONSONANT> {optional silence} <STOP CONSONANT>
        //       Shorten both to (length/2 + 1)

        // (voiced) stop consonant?
        if((flags[index] & 2) != 0)
    259c:	34 2f       	mov	r19, r20
    259e:	32 70       	andi	r19, 0x02	; 2
    25a0:	41 ff       	sbrs	r20, 1
    25a2:	2d c0       	rjmp	.+90     	; 0x25fe <AdjustLengths+0x204>
    25a4:	82 2f       	mov	r24, r18
                         
            // move past silence
            do
            {
                // move ahead
                X++;
    25a6:	8f 5f       	subi	r24, 0xFF	; 255
                index = phonemeIndex[X];
    25a8:	48 2f       	mov	r20, r24
    25aa:	50 e0       	ldi	r21, 0x00	; 0
    25ac:	fa 01       	movw	r30, r20
    25ae:	e9 5e       	subi	r30, 0xE9	; 233
    25b0:	f9 4f       	sbci	r31, 0xF9	; 249
    25b2:	e0 81       	ld	r30, Z
            } while(index == 0);
    25b4:	ee 23       	and	r30, r30
    25b6:	b9 f3       	breq	.-18     	; 0x25a6 <AdjustLengths+0x1ac>


            // check for end of buffer
            if (index == 255) //buffer overflow
    25b8:	ef 3f       	cpi	r30, 0xFF	; 255
    25ba:	21 f4       	brne	.+8      	; 0x25c4 <AdjustLengths+0x1ca>
            {
                // ignore, overflow code
                if ((65 & 2) == 0) {loopIndex++; continue;}
    25bc:	81 e0       	ldi	r24, 0x01	; 1
    25be:	82 0f       	add	r24, r18
		
		// exit routine at end token
		if (index == 255) return;

		// vowel?
		A = flags[index] & 128;
    25c0:	39 2f       	mov	r19, r25

            // check for end of buffer
            if (index == 255) //buffer overflow
            {
                // ignore, overflow code
                if ((65 & 2) == 0) {loopIndex++; continue;}
    25c2:	75 cf       	rjmp	.-278    	; 0x24ae <AdjustLengths+0xb4>
            } else if ((flags[index] & 2) == 0) {
    25c4:	f0 e0       	ldi	r31, 0x00	; 0
    25c6:	e9 50       	subi	r30, 0x09	; 9
    25c8:	f4 4f       	sbci	r31, 0xF4	; 244
    25ca:	80 81       	ld	r24, Z
    25cc:	38 2f       	mov	r19, r24
    25ce:	32 70       	andi	r19, 0x02	; 2
    25d0:	81 fd       	sbrc	r24, 1
    25d2:	03 c0       	rjmp	.+6      	; 0x25da <AdjustLengths+0x1e0>
                // if another stop consonant, move ahead
                loopIndex++;
    25d4:	81 e0       	ldi	r24, 0x01	; 1
    25d6:	82 0f       	add	r24, r18
                continue;
    25d8:	6a cf       	rjmp	.-300    	; 0x24ae <AdjustLengths+0xb4>
// X gets overwritten, so hold prior X value for debug statement
#if DEBUG_LOG
int debugX = X;
#endif
            // shorten the prior phoneme length to (length/2 + 1)
            phonemeLength[X] = (phonemeLength[X] >> 1) + 1;
    25da:	fa 01       	movw	r30, r20
    25dc:	e7 5e       	subi	r30, 0xE7	; 231
    25de:	f8 4f       	sbci	r31, 0xF8	; 248
    25e0:	80 81       	ld	r24, Z
    25e2:	86 95       	lsr	r24
    25e4:	8f 5f       	subi	r24, 0xFF	; 255
    25e6:	80 83       	st	Z, r24
            X = loopIndex;

            // also shorten this phoneme length to (length/2 +1)
            phonemeLength[loopIndex] = (phonemeLength[loopIndex] >> 1) + 1;
    25e8:	fb 01       	movw	r30, r22
    25ea:	e7 5e       	subi	r30, 0xE7	; 231
    25ec:	f8 4f       	sbci	r31, 0xF8	; 248
    25ee:	80 81       	ld	r24, Z
    25f0:	86 95       	lsr	r24
    25f2:	8f 5f       	subi	r24, 0xFF	; 255
    25f4:	80 83       	st	Z, r24
printf("phoneme %d (%c%c) length %d\n", debugX, signInputTable1[phonemeIndex[debugX]], signInputTable2[phonemeIndex[debugX]], phonemeLength[debugX]);
printf("phoneme %d (%c%c) length %d\n", debugX-1, signInputTable1[phonemeIndex[debugX-1]], signInputTable2[phonemeIndex[debugX-1]], phonemeLength[debugX-1]);
#endif

            // move ahead
            loopIndex++;
    25f6:	81 e0       	ldi	r24, 0x01	; 1
    25f8:	82 0f       	add	r24, r18
		
		// exit routine at end token
		if (index == 255) return;

		// vowel?
		A = flags[index] & 128;
    25fa:	39 2f       	mov	r19, r25
printf("phoneme %d (%c%c) length %d\n", debugX-1, signInputTable1[phonemeIndex[debugX-1]], signInputTable2[phonemeIndex[debugX-1]], phonemeLength[debugX-1]);
#endif

            // move ahead
            loopIndex++;
            continue;
    25fc:	58 cf       	rjmp	.-336    	; 0x24ae <AdjustLengths+0xb4>

        // RULE: <VOICED NON-VOWEL> <DIPHTONG>
        //       Decrease <DIPHTONG> by 2

        // liquic consonant?
        if ((flags2[index] & 16) != 0)
    25fe:	84 ff       	sbrs	r24, 4
    2600:	10 c0       	rjmp	.+32     	; 0x2622 <AdjustLengths+0x228>
        {
            // R*, L*, W*, Y*
                           
            // get the prior phoneme
            index = phonemeIndex[X-1];
    2602:	fb 01       	movw	r30, r22
    2604:	ea 5e       	subi	r30, 0xEA	; 234
    2606:	f9 4f       	sbci	r31, 0xF9	; 249

            // prior phoneme a stop consonant>
            if((flags[index] & 2) != 0)
    2608:	e0 81       	ld	r30, Z
    260a:	f0 e0       	ldi	r31, 0x00	; 0
    260c:	e9 50       	subi	r30, 0x09	; 9
    260e:	f4 4f       	sbci	r31, 0xF4	; 244
    2610:	80 81       	ld	r24, Z
    2612:	81 ff       	sbrs	r24, 1
    2614:	06 c0       	rjmp	.+12     	; 0x2622 <AdjustLengths+0x228>
printf("RULE: <LIQUID CONSONANT> <DIPHTONG> - decrease by 2\n");
printf("PRE\n");
printf("phoneme %d (%c%c) length %d\n", X, signInputTable1[phonemeIndex[X]], signInputTable2[phonemeIndex[X]], phonemeLength[X]);
#endif           
             // decrease the phoneme length by 2 frames (20 ms)
             phonemeLength[X] -= 2;
    2616:	fb 01       	movw	r30, r22
    2618:	e7 5e       	subi	r30, 0xE7	; 231
    261a:	f8 4f       	sbci	r31, 0xF8	; 248
    261c:	80 81       	ld	r24, Z
    261e:	82 50       	subi	r24, 0x02	; 2
    2620:	80 83       	st	Z, r24
printf("phoneme %d (%c%c) length %d\n", X, signInputTable1[phonemeIndex[X]], signInputTable2[phonemeIndex[X]], phonemeLength[X]);
#endif
         }

         // move to next phoneme
         loopIndex++;
    2622:	81 e0       	ldi	r24, 0x01	; 1
    2624:	82 0f       	add	r24, r18
         continue;
    2626:	43 cf       	rjmp	.-378    	; 0x24ae <AdjustLengths+0xb4>
    2628:	20 93 93 08 	sts	0x0893, r18	; 0x800893 <X>
    262c:	30 93 d6 03 	sts	0x03D6, r19	; 0x8003d6 <A>
    2630:	a0 93 55 08 	sts	0x0855, r26	; 0x800855 <mem56>
    }
//            goto pos48701;
}
    2634:	cf 91       	pop	r28
    2636:	08 95       	ret

00002638 <SAMMain>:


//int Code39771()
int SAMMain()
{
	Init();
    2638:	06 da       	rcall	.-3060   	; 0x1a46 <Init>
	phonemeIndex[255] = 32; //to prevent buffer overflow
    263a:	80 e2       	ldi	r24, 0x20	; 32
    263c:	80 93 16 07 	sts	0x0716, r24	; 0x800716 <phonemeIndex+0xff>

	if (!Parser1()) return 0;
    2640:	64 db       	rcall	.-2360   	; 0x1d0a <Parser1>
    2642:	00 97       	sbiw	r24, 0x00	; 0
    2644:	19 f1       	breq	.+70     	; 0x268c <SAMMain+0x54>
	#if DEBUG_LOG
		PrintPhonemes(phonemeIndex, phonemeLength, stress);
	#endif
	Parser2();
    2646:	d4 dc       	rcall	.-1624   	; 0x1ff0 <Parser2>
	CopyStress();
    2648:	82 da       	rcall	.-2812   	; 0x1b4e <CopyStress>
	SetPhonemeLength();
    264a:	2c dc       	rcall	.-1960   	; 0x1ea4 <SetPhonemeLength>
	AdjustLengths();
    264c:	d6 de       	rcall	.-596    	; 0x23fa <AdjustLengths>
	Code41240();
    264e:	4f dc       	rcall	.-1890   	; 0x1eee <Code41240>
    2650:	80 91 93 08 	lds	r24, 0x0893	; 0x800893 <X>
	do
	{
		A = phonemeIndex[X];
    2654:	28 2f       	mov	r18, r24
    2656:	30 e0       	ldi	r19, 0x00	; 0
    2658:	f9 01       	movw	r30, r18
    265a:	e9 5e       	subi	r30, 0xE9	; 233
    265c:	f9 4f       	sbci	r31, 0xF9	; 249
    265e:	90 81       	ld	r25, Z
		if (A > 80)
    2660:	91 35       	cpi	r25, 0x51	; 81
    2662:	50 f0       	brcs	.+20     	; 0x2678 <SAMMain+0x40>
    2664:	80 93 93 08 	sts	0x0893, r24	; 0x800893 <X>
    2668:	90 93 d6 03 	sts	0x03D6, r25	; 0x8003d6 <A>
		{
			phonemeIndex[X] = 255;
    266c:	f9 01       	movw	r30, r18
    266e:	e9 5e       	subi	r30, 0xE9	; 233
    2670:	f9 4f       	sbci	r31, 0xF9	; 249
    2672:	8f ef       	ldi	r24, 0xFF	; 255
    2674:	80 83       	st	Z, r24
			break; // error: delete all behind it
    2676:	06 c0       	rjmp	.+12     	; 0x2684 <SAMMain+0x4c>
		}
		X++;
    2678:	8f 5f       	subi	r24, 0xFF	; 255
	} while (X != 0);
    267a:	61 f7       	brne	.-40     	; 0x2654 <SAMMain+0x1c>
    267c:	10 92 93 08 	sts	0x0893, r1	; 0x800893 <X>
    2680:	90 93 d6 03 	sts	0x03D6, r25	; 0x8003d6 <A>

	//pos39848:
	InsertBreath();
    2684:	e9 da       	rcall	.-2606   	; 0x1c58 <InsertBreath>
	//mem[40158] = 255;
	#if DEBUG_LOG 
		PrintPhonemes(phonemeIndex, phonemeLength, stress);
	#endif

	PrepareOutput();
    2686:	0c da       	rcall	.-3048   	; 0x1aa0 <PrepareOutput>

	return 1;
    2688:	81 e0       	ldi	r24, 0x01	; 1
    268a:	90 e0       	ldi	r25, 0x00	; 0
}
    268c:	08 95       	ret

0000268e <__udivmodqi4>:
    268e:	99 1b       	sub	r25, r25
    2690:	79 e0       	ldi	r23, 0x09	; 9
    2692:	04 c0       	rjmp	.+8      	; 0x269c <__udivmodqi4_ep>

00002694 <__udivmodqi4_loop>:
    2694:	99 1f       	adc	r25, r25
    2696:	96 17       	cp	r25, r22
    2698:	08 f0       	brcs	.+2      	; 0x269c <__udivmodqi4_ep>
    269a:	96 1b       	sub	r25, r22

0000269c <__udivmodqi4_ep>:
    269c:	88 1f       	adc	r24, r24
    269e:	7a 95       	dec	r23
    26a0:	c9 f7       	brne	.-14     	; 0x2694 <__udivmodqi4_loop>
    26a2:	80 95       	com	r24
    26a4:	08 95       	ret

000026a6 <__divmodhi4>:
    26a6:	97 fb       	bst	r25, 7
    26a8:	07 2e       	mov	r0, r23
    26aa:	16 f4       	brtc	.+4      	; 0x26b0 <__divmodhi4+0xa>
    26ac:	00 94       	com	r0
    26ae:	06 d0       	rcall	.+12     	; 0x26bc <__divmodhi4_neg1>
    26b0:	77 fd       	sbrc	r23, 7
    26b2:	08 d0       	rcall	.+16     	; 0x26c4 <__divmodhi4_neg2>
    26b4:	0b d0       	rcall	.+22     	; 0x26cc <__udivmodhi4>
    26b6:	07 fc       	sbrc	r0, 7
    26b8:	05 d0       	rcall	.+10     	; 0x26c4 <__divmodhi4_neg2>
    26ba:	3e f4       	brtc	.+14     	; 0x26ca <__divmodhi4_exit>

000026bc <__divmodhi4_neg1>:
    26bc:	90 95       	com	r25
    26be:	81 95       	neg	r24
    26c0:	9f 4f       	sbci	r25, 0xFF	; 255
    26c2:	08 95       	ret

000026c4 <__divmodhi4_neg2>:
    26c4:	70 95       	com	r23
    26c6:	61 95       	neg	r22
    26c8:	7f 4f       	sbci	r23, 0xFF	; 255

000026ca <__divmodhi4_exit>:
    26ca:	08 95       	ret

000026cc <__udivmodhi4>:
    26cc:	aa 1b       	sub	r26, r26
    26ce:	bb 1b       	sub	r27, r27
    26d0:	51 e1       	ldi	r21, 0x11	; 17
    26d2:	07 c0       	rjmp	.+14     	; 0x26e2 <__udivmodhi4_ep>

000026d4 <__udivmodhi4_loop>:
    26d4:	aa 1f       	adc	r26, r26
    26d6:	bb 1f       	adc	r27, r27
    26d8:	a6 17       	cp	r26, r22
    26da:	b7 07       	cpc	r27, r23
    26dc:	10 f0       	brcs	.+4      	; 0x26e2 <__udivmodhi4_ep>
    26de:	a6 1b       	sub	r26, r22
    26e0:	b7 0b       	sbc	r27, r23

000026e2 <__udivmodhi4_ep>:
    26e2:	88 1f       	adc	r24, r24
    26e4:	99 1f       	adc	r25, r25
    26e6:	5a 95       	dec	r21
    26e8:	a9 f7       	brne	.-22     	; 0x26d4 <__udivmodhi4_loop>
    26ea:	80 95       	com	r24
    26ec:	90 95       	com	r25
    26ee:	bc 01       	movw	r22, r24
    26f0:	cd 01       	movw	r24, r26
    26f2:	08 95       	ret

000026f4 <calloc>:
    26f4:	0f 93       	push	r16
    26f6:	1f 93       	push	r17
    26f8:	cf 93       	push	r28
    26fa:	df 93       	push	r29
    26fc:	86 9f       	mul	r24, r22
    26fe:	80 01       	movw	r16, r0
    2700:	87 9f       	mul	r24, r23
    2702:	10 0d       	add	r17, r0
    2704:	96 9f       	mul	r25, r22
    2706:	10 0d       	add	r17, r0
    2708:	11 24       	eor	r1, r1
    270a:	c8 01       	movw	r24, r16
    270c:	0d d0       	rcall	.+26     	; 0x2728 <malloc>
    270e:	ec 01       	movw	r28, r24
    2710:	00 97       	sbiw	r24, 0x00	; 0
    2712:	21 f0       	breq	.+8      	; 0x271c <calloc+0x28>
    2714:	a8 01       	movw	r20, r16
    2716:	60 e0       	ldi	r22, 0x00	; 0
    2718:	70 e0       	ldi	r23, 0x00	; 0
    271a:	33 d1       	rcall	.+614    	; 0x2982 <memset>
    271c:	ce 01       	movw	r24, r28
    271e:	df 91       	pop	r29
    2720:	cf 91       	pop	r28
    2722:	1f 91       	pop	r17
    2724:	0f 91       	pop	r16
    2726:	08 95       	ret

00002728 <malloc>:
    2728:	cf 93       	push	r28
    272a:	df 93       	push	r29
    272c:	82 30       	cpi	r24, 0x02	; 2
    272e:	91 05       	cpc	r25, r1
    2730:	10 f4       	brcc	.+4      	; 0x2736 <malloc+0xe>
    2732:	82 e0       	ldi	r24, 0x02	; 2
    2734:	90 e0       	ldi	r25, 0x00	; 0
    2736:	e0 91 96 08 	lds	r30, 0x0896	; 0x800896 <__flp>
    273a:	f0 91 97 08 	lds	r31, 0x0897	; 0x800897 <__flp+0x1>
    273e:	20 e0       	ldi	r18, 0x00	; 0
    2740:	30 e0       	ldi	r19, 0x00	; 0
    2742:	c0 e0       	ldi	r28, 0x00	; 0
    2744:	d0 e0       	ldi	r29, 0x00	; 0
    2746:	30 97       	sbiw	r30, 0x00	; 0
    2748:	11 f1       	breq	.+68     	; 0x278e <malloc+0x66>
    274a:	40 81       	ld	r20, Z
    274c:	51 81       	ldd	r21, Z+1	; 0x01
    274e:	48 17       	cp	r20, r24
    2750:	59 07       	cpc	r21, r25
    2752:	c0 f0       	brcs	.+48     	; 0x2784 <malloc+0x5c>
    2754:	48 17       	cp	r20, r24
    2756:	59 07       	cpc	r21, r25
    2758:	61 f4       	brne	.+24     	; 0x2772 <malloc+0x4a>
    275a:	82 81       	ldd	r24, Z+2	; 0x02
    275c:	93 81       	ldd	r25, Z+3	; 0x03
    275e:	20 97       	sbiw	r28, 0x00	; 0
    2760:	19 f0       	breq	.+6      	; 0x2768 <malloc+0x40>
    2762:	9b 83       	std	Y+3, r25	; 0x03
    2764:	8a 83       	std	Y+2, r24	; 0x02
    2766:	2b c0       	rjmp	.+86     	; 0x27be <malloc+0x96>
    2768:	90 93 97 08 	sts	0x0897, r25	; 0x800897 <__flp+0x1>
    276c:	80 93 96 08 	sts	0x0896, r24	; 0x800896 <__flp>
    2770:	26 c0       	rjmp	.+76     	; 0x27be <malloc+0x96>
    2772:	21 15       	cp	r18, r1
    2774:	31 05       	cpc	r19, r1
    2776:	19 f0       	breq	.+6      	; 0x277e <malloc+0x56>
    2778:	42 17       	cp	r20, r18
    277a:	53 07       	cpc	r21, r19
    277c:	18 f4       	brcc	.+6      	; 0x2784 <malloc+0x5c>
    277e:	9a 01       	movw	r18, r20
    2780:	be 01       	movw	r22, r28
    2782:	df 01       	movw	r26, r30
    2784:	ef 01       	movw	r28, r30
    2786:	02 80       	ldd	r0, Z+2	; 0x02
    2788:	f3 81       	ldd	r31, Z+3	; 0x03
    278a:	e0 2d       	mov	r30, r0
    278c:	dc cf       	rjmp	.-72     	; 0x2746 <malloc+0x1e>
    278e:	21 15       	cp	r18, r1
    2790:	31 05       	cpc	r19, r1
    2792:	09 f1       	breq	.+66     	; 0x27d6 <malloc+0xae>
    2794:	28 1b       	sub	r18, r24
    2796:	39 0b       	sbc	r19, r25
    2798:	24 30       	cpi	r18, 0x04	; 4
    279a:	31 05       	cpc	r19, r1
    279c:	90 f4       	brcc	.+36     	; 0x27c2 <malloc+0x9a>
    279e:	12 96       	adiw	r26, 0x02	; 2
    27a0:	8d 91       	ld	r24, X+
    27a2:	9c 91       	ld	r25, X
    27a4:	13 97       	sbiw	r26, 0x03	; 3
    27a6:	61 15       	cp	r22, r1
    27a8:	71 05       	cpc	r23, r1
    27aa:	21 f0       	breq	.+8      	; 0x27b4 <malloc+0x8c>
    27ac:	fb 01       	movw	r30, r22
    27ae:	93 83       	std	Z+3, r25	; 0x03
    27b0:	82 83       	std	Z+2, r24	; 0x02
    27b2:	04 c0       	rjmp	.+8      	; 0x27bc <malloc+0x94>
    27b4:	90 93 97 08 	sts	0x0897, r25	; 0x800897 <__flp+0x1>
    27b8:	80 93 96 08 	sts	0x0896, r24	; 0x800896 <__flp>
    27bc:	fd 01       	movw	r30, r26
    27be:	32 96       	adiw	r30, 0x02	; 2
    27c0:	44 c0       	rjmp	.+136    	; 0x284a <malloc+0x122>
    27c2:	fd 01       	movw	r30, r26
    27c4:	e2 0f       	add	r30, r18
    27c6:	f3 1f       	adc	r31, r19
    27c8:	81 93       	st	Z+, r24
    27ca:	91 93       	st	Z+, r25
    27cc:	22 50       	subi	r18, 0x02	; 2
    27ce:	31 09       	sbc	r19, r1
    27d0:	2d 93       	st	X+, r18
    27d2:	3c 93       	st	X, r19
    27d4:	3a c0       	rjmp	.+116    	; 0x284a <malloc+0x122>
    27d6:	20 91 94 08 	lds	r18, 0x0894	; 0x800894 <__brkval>
    27da:	30 91 95 08 	lds	r19, 0x0895	; 0x800895 <__brkval+0x1>
    27de:	23 2b       	or	r18, r19
    27e0:	41 f4       	brne	.+16     	; 0x27f2 <malloc+0xca>
    27e2:	20 91 02 01 	lds	r18, 0x0102	; 0x800102 <__malloc_heap_start>
    27e6:	30 91 03 01 	lds	r19, 0x0103	; 0x800103 <__malloc_heap_start+0x1>
    27ea:	30 93 95 08 	sts	0x0895, r19	; 0x800895 <__brkval+0x1>
    27ee:	20 93 94 08 	sts	0x0894, r18	; 0x800894 <__brkval>
    27f2:	20 91 00 01 	lds	r18, 0x0100	; 0x800100 <__data_start>
    27f6:	30 91 01 01 	lds	r19, 0x0101	; 0x800101 <__data_start+0x1>
    27fa:	21 15       	cp	r18, r1
    27fc:	31 05       	cpc	r19, r1
    27fe:	41 f4       	brne	.+16     	; 0x2810 <malloc+0xe8>
    2800:	2d b7       	in	r18, 0x3d	; 61
    2802:	3e b7       	in	r19, 0x3e	; 62
    2804:	40 91 04 01 	lds	r20, 0x0104	; 0x800104 <__malloc_margin>
    2808:	50 91 05 01 	lds	r21, 0x0105	; 0x800105 <__malloc_margin+0x1>
    280c:	24 1b       	sub	r18, r20
    280e:	35 0b       	sbc	r19, r21
    2810:	e0 91 94 08 	lds	r30, 0x0894	; 0x800894 <__brkval>
    2814:	f0 91 95 08 	lds	r31, 0x0895	; 0x800895 <__brkval+0x1>
    2818:	e2 17       	cp	r30, r18
    281a:	f3 07       	cpc	r31, r19
    281c:	a0 f4       	brcc	.+40     	; 0x2846 <malloc+0x11e>
    281e:	2e 1b       	sub	r18, r30
    2820:	3f 0b       	sbc	r19, r31
    2822:	28 17       	cp	r18, r24
    2824:	39 07       	cpc	r19, r25
    2826:	78 f0       	brcs	.+30     	; 0x2846 <malloc+0x11e>
    2828:	ac 01       	movw	r20, r24
    282a:	4e 5f       	subi	r20, 0xFE	; 254
    282c:	5f 4f       	sbci	r21, 0xFF	; 255
    282e:	24 17       	cp	r18, r20
    2830:	35 07       	cpc	r19, r21
    2832:	48 f0       	brcs	.+18     	; 0x2846 <malloc+0x11e>
    2834:	4e 0f       	add	r20, r30
    2836:	5f 1f       	adc	r21, r31
    2838:	50 93 95 08 	sts	0x0895, r21	; 0x800895 <__brkval+0x1>
    283c:	40 93 94 08 	sts	0x0894, r20	; 0x800894 <__brkval>
    2840:	81 93       	st	Z+, r24
    2842:	91 93       	st	Z+, r25
    2844:	02 c0       	rjmp	.+4      	; 0x284a <malloc+0x122>
    2846:	e0 e0       	ldi	r30, 0x00	; 0
    2848:	f0 e0       	ldi	r31, 0x00	; 0
    284a:	cf 01       	movw	r24, r30
    284c:	df 91       	pop	r29
    284e:	cf 91       	pop	r28
    2850:	08 95       	ret

00002852 <free>:
    2852:	0f 93       	push	r16
    2854:	1f 93       	push	r17
    2856:	cf 93       	push	r28
    2858:	df 93       	push	r29
    285a:	00 97       	sbiw	r24, 0x00	; 0
    285c:	09 f4       	brne	.+2      	; 0x2860 <free+0xe>
    285e:	8c c0       	rjmp	.+280    	; 0x2978 <free+0x126>
    2860:	fc 01       	movw	r30, r24
    2862:	32 97       	sbiw	r30, 0x02	; 2
    2864:	13 82       	std	Z+3, r1	; 0x03
    2866:	12 82       	std	Z+2, r1	; 0x02
    2868:	00 91 96 08 	lds	r16, 0x0896	; 0x800896 <__flp>
    286c:	10 91 97 08 	lds	r17, 0x0897	; 0x800897 <__flp+0x1>
    2870:	01 15       	cp	r16, r1
    2872:	11 05       	cpc	r17, r1
    2874:	81 f4       	brne	.+32     	; 0x2896 <free+0x44>
    2876:	20 81       	ld	r18, Z
    2878:	31 81       	ldd	r19, Z+1	; 0x01
    287a:	82 0f       	add	r24, r18
    287c:	93 1f       	adc	r25, r19
    287e:	20 91 94 08 	lds	r18, 0x0894	; 0x800894 <__brkval>
    2882:	30 91 95 08 	lds	r19, 0x0895	; 0x800895 <__brkval+0x1>
    2886:	28 17       	cp	r18, r24
    2888:	39 07       	cpc	r19, r25
    288a:	79 f5       	brne	.+94     	; 0x28ea <free+0x98>
    288c:	f0 93 95 08 	sts	0x0895, r31	; 0x800895 <__brkval+0x1>
    2890:	e0 93 94 08 	sts	0x0894, r30	; 0x800894 <__brkval>
    2894:	71 c0       	rjmp	.+226    	; 0x2978 <free+0x126>
    2896:	d8 01       	movw	r26, r16
    2898:	40 e0       	ldi	r20, 0x00	; 0
    289a:	50 e0       	ldi	r21, 0x00	; 0
    289c:	ae 17       	cp	r26, r30
    289e:	bf 07       	cpc	r27, r31
    28a0:	50 f4       	brcc	.+20     	; 0x28b6 <free+0x64>
    28a2:	12 96       	adiw	r26, 0x02	; 2
    28a4:	2d 91       	ld	r18, X+
    28a6:	3c 91       	ld	r19, X
    28a8:	13 97       	sbiw	r26, 0x03	; 3
    28aa:	ad 01       	movw	r20, r26
    28ac:	21 15       	cp	r18, r1
    28ae:	31 05       	cpc	r19, r1
    28b0:	09 f1       	breq	.+66     	; 0x28f4 <free+0xa2>
    28b2:	d9 01       	movw	r26, r18
    28b4:	f3 cf       	rjmp	.-26     	; 0x289c <free+0x4a>
    28b6:	9d 01       	movw	r18, r26
    28b8:	da 01       	movw	r26, r20
    28ba:	33 83       	std	Z+3, r19	; 0x03
    28bc:	22 83       	std	Z+2, r18	; 0x02
    28be:	60 81       	ld	r22, Z
    28c0:	71 81       	ldd	r23, Z+1	; 0x01
    28c2:	86 0f       	add	r24, r22
    28c4:	97 1f       	adc	r25, r23
    28c6:	82 17       	cp	r24, r18
    28c8:	93 07       	cpc	r25, r19
    28ca:	69 f4       	brne	.+26     	; 0x28e6 <free+0x94>
    28cc:	ec 01       	movw	r28, r24
    28ce:	28 81       	ld	r18, Y
    28d0:	39 81       	ldd	r19, Y+1	; 0x01
    28d2:	26 0f       	add	r18, r22
    28d4:	37 1f       	adc	r19, r23
    28d6:	2e 5f       	subi	r18, 0xFE	; 254
    28d8:	3f 4f       	sbci	r19, 0xFF	; 255
    28da:	31 83       	std	Z+1, r19	; 0x01
    28dc:	20 83       	st	Z, r18
    28de:	8a 81       	ldd	r24, Y+2	; 0x02
    28e0:	9b 81       	ldd	r25, Y+3	; 0x03
    28e2:	93 83       	std	Z+3, r25	; 0x03
    28e4:	82 83       	std	Z+2, r24	; 0x02
    28e6:	45 2b       	or	r20, r21
    28e8:	29 f4       	brne	.+10     	; 0x28f4 <free+0xa2>
    28ea:	f0 93 97 08 	sts	0x0897, r31	; 0x800897 <__flp+0x1>
    28ee:	e0 93 96 08 	sts	0x0896, r30	; 0x800896 <__flp>
    28f2:	42 c0       	rjmp	.+132    	; 0x2978 <free+0x126>
    28f4:	13 96       	adiw	r26, 0x03	; 3
    28f6:	fc 93       	st	X, r31
    28f8:	ee 93       	st	-X, r30
    28fa:	12 97       	sbiw	r26, 0x02	; 2
    28fc:	ed 01       	movw	r28, r26
    28fe:	49 91       	ld	r20, Y+
    2900:	59 91       	ld	r21, Y+
    2902:	9e 01       	movw	r18, r28
    2904:	24 0f       	add	r18, r20
    2906:	35 1f       	adc	r19, r21
    2908:	e2 17       	cp	r30, r18
    290a:	f3 07       	cpc	r31, r19
    290c:	71 f4       	brne	.+28     	; 0x292a <free+0xd8>
    290e:	80 81       	ld	r24, Z
    2910:	91 81       	ldd	r25, Z+1	; 0x01
    2912:	84 0f       	add	r24, r20
    2914:	95 1f       	adc	r25, r21
    2916:	02 96       	adiw	r24, 0x02	; 2
    2918:	11 96       	adiw	r26, 0x01	; 1
    291a:	9c 93       	st	X, r25
    291c:	8e 93       	st	-X, r24
    291e:	82 81       	ldd	r24, Z+2	; 0x02
    2920:	93 81       	ldd	r25, Z+3	; 0x03
    2922:	13 96       	adiw	r26, 0x03	; 3
    2924:	9c 93       	st	X, r25
    2926:	8e 93       	st	-X, r24
    2928:	12 97       	sbiw	r26, 0x02	; 2
    292a:	e0 e0       	ldi	r30, 0x00	; 0
    292c:	f0 e0       	ldi	r31, 0x00	; 0
    292e:	d8 01       	movw	r26, r16
    2930:	12 96       	adiw	r26, 0x02	; 2
    2932:	8d 91       	ld	r24, X+
    2934:	9c 91       	ld	r25, X
    2936:	13 97       	sbiw	r26, 0x03	; 3
    2938:	00 97       	sbiw	r24, 0x00	; 0
    293a:	19 f0       	breq	.+6      	; 0x2942 <free+0xf0>
    293c:	f8 01       	movw	r30, r16
    293e:	8c 01       	movw	r16, r24
    2940:	f6 cf       	rjmp	.-20     	; 0x292e <free+0xdc>
    2942:	8d 91       	ld	r24, X+
    2944:	9c 91       	ld	r25, X
    2946:	98 01       	movw	r18, r16
    2948:	2e 5f       	subi	r18, 0xFE	; 254
    294a:	3f 4f       	sbci	r19, 0xFF	; 255
    294c:	82 0f       	add	r24, r18
    294e:	93 1f       	adc	r25, r19
    2950:	20 91 94 08 	lds	r18, 0x0894	; 0x800894 <__brkval>
    2954:	30 91 95 08 	lds	r19, 0x0895	; 0x800895 <__brkval+0x1>
    2958:	28 17       	cp	r18, r24
    295a:	39 07       	cpc	r19, r25
    295c:	69 f4       	brne	.+26     	; 0x2978 <free+0x126>
    295e:	30 97       	sbiw	r30, 0x00	; 0
    2960:	29 f4       	brne	.+10     	; 0x296c <free+0x11a>
    2962:	10 92 97 08 	sts	0x0897, r1	; 0x800897 <__flp+0x1>
    2966:	10 92 96 08 	sts	0x0896, r1	; 0x800896 <__flp>
    296a:	02 c0       	rjmp	.+4      	; 0x2970 <free+0x11e>
    296c:	13 82       	std	Z+3, r1	; 0x03
    296e:	12 82       	std	Z+2, r1	; 0x02
    2970:	10 93 95 08 	sts	0x0895, r17	; 0x800895 <__brkval+0x1>
    2974:	00 93 94 08 	sts	0x0894, r16	; 0x800894 <__brkval>
    2978:	df 91       	pop	r29
    297a:	cf 91       	pop	r28
    297c:	1f 91       	pop	r17
    297e:	0f 91       	pop	r16
    2980:	08 95       	ret

00002982 <memset>:
    2982:	dc 01       	movw	r26, r24
    2984:	01 c0       	rjmp	.+2      	; 0x2988 <memset+0x6>
    2986:	6d 93       	st	X+, r22
    2988:	41 50       	subi	r20, 0x01	; 1
    298a:	50 40       	sbci	r21, 0x00	; 0
    298c:	e0 f7       	brcc	.-8      	; 0x2986 <memset+0x4>
    298e:	08 95       	ret

00002990 <_exit>:
    2990:	f8 94       	cli

00002992 <__stop_program>:
    2992:	ff cf       	rjmp	.-2      	; 0x2992 <__stop_program>
